
rtarget:     file format elf64-x86-64


Disassembly of section .init:

0000000000401000 <_init>:
  401000:	f3 0f 1e fa          	endbr64 
  401004:	48 83 ec 08          	sub    $0x8,%rsp
  401008:	48 8b 05 e1 5f 00 00 	mov    0x5fe1(%rip),%rax        # 406ff0 <__gmon_start__>
  40100f:	48 85 c0             	test   %rax,%rax
  401012:	74 02                	je     401016 <_init+0x16>
  401014:	ff d0                	callq  *%rax
  401016:	48 83 c4 08          	add    $0x8,%rsp
  40101a:	c3                   	retq   

Disassembly of section .plt:

0000000000401020 <.plt>:
  401020:	ff 35 e2 5f 00 00    	pushq  0x5fe2(%rip)        # 407008 <_GLOBAL_OFFSET_TABLE_+0x8>
  401026:	ff 25 e4 5f 00 00    	jmpq   *0x5fe4(%rip)        # 407010 <_GLOBAL_OFFSET_TABLE_+0x10>
  40102c:	0f 1f 40 00          	nopl   0x0(%rax)

0000000000401030 <strcasecmp@plt>:
  401030:	ff 25 e2 5f 00 00    	jmpq   *0x5fe2(%rip)        # 407018 <strcasecmp@GLIBC_2.2.5>
  401036:	68 00 00 00 00       	pushq  $0x0
  40103b:	e9 e0 ff ff ff       	jmpq   401020 <.plt>

0000000000401040 <__errno_location@plt>:
  401040:	ff 25 da 5f 00 00    	jmpq   *0x5fda(%rip)        # 407020 <__errno_location@GLIBC_2.2.5>
  401046:	68 01 00 00 00       	pushq  $0x1
  40104b:	e9 d0 ff ff ff       	jmpq   401020 <.plt>

0000000000401050 <srandom@plt>:
  401050:	ff 25 d2 5f 00 00    	jmpq   *0x5fd2(%rip)        # 407028 <srandom@GLIBC_2.2.5>
  401056:	68 02 00 00 00       	pushq  $0x2
  40105b:	e9 c0 ff ff ff       	jmpq   401020 <.plt>

0000000000401060 <strncmp@plt>:
  401060:	ff 25 ca 5f 00 00    	jmpq   *0x5fca(%rip)        # 407030 <strncmp@GLIBC_2.2.5>
  401066:	68 03 00 00 00       	pushq  $0x3
  40106b:	e9 b0 ff ff ff       	jmpq   401020 <.plt>

0000000000401070 <strcpy@plt>:
  401070:	ff 25 c2 5f 00 00    	jmpq   *0x5fc2(%rip)        # 407038 <strcpy@GLIBC_2.2.5>
  401076:	68 04 00 00 00       	pushq  $0x4
  40107b:	e9 a0 ff ff ff       	jmpq   401020 <.plt>

0000000000401080 <puts@plt>:
  401080:	ff 25 ba 5f 00 00    	jmpq   *0x5fba(%rip)        # 407040 <puts@GLIBC_2.2.5>
  401086:	68 05 00 00 00       	pushq  $0x5
  40108b:	e9 90 ff ff ff       	jmpq   401020 <.plt>

0000000000401090 <write@plt>:
  401090:	ff 25 b2 5f 00 00    	jmpq   *0x5fb2(%rip)        # 407048 <write@GLIBC_2.2.5>
  401096:	68 06 00 00 00       	pushq  $0x6
  40109b:	e9 80 ff ff ff       	jmpq   401020 <.plt>

00000000004010a0 <strlen@plt>:
  4010a0:	ff 25 aa 5f 00 00    	jmpq   *0x5faa(%rip)        # 407050 <strlen@GLIBC_2.2.5>
  4010a6:	68 07 00 00 00       	pushq  $0x7
  4010ab:	e9 70 ff ff ff       	jmpq   401020 <.plt>

00000000004010b0 <mmap@plt>:
  4010b0:	ff 25 a2 5f 00 00    	jmpq   *0x5fa2(%rip)        # 407058 <mmap@GLIBC_2.2.5>
  4010b6:	68 08 00 00 00       	pushq  $0x8
  4010bb:	e9 60 ff ff ff       	jmpq   401020 <.plt>

00000000004010c0 <printf@plt>:
  4010c0:	ff 25 9a 5f 00 00    	jmpq   *0x5f9a(%rip)        # 407060 <printf@GLIBC_2.2.5>
  4010c6:	68 09 00 00 00       	pushq  $0x9
  4010cb:	e9 50 ff ff ff       	jmpq   401020 <.plt>

00000000004010d0 <memset@plt>:
  4010d0:	ff 25 92 5f 00 00    	jmpq   *0x5f92(%rip)        # 407068 <memset@GLIBC_2.2.5>
  4010d6:	68 0a 00 00 00       	pushq  $0xa
  4010db:	e9 40 ff ff ff       	jmpq   401020 <.plt>

00000000004010e0 <alarm@plt>:
  4010e0:	ff 25 8a 5f 00 00    	jmpq   *0x5f8a(%rip)        # 407070 <alarm@GLIBC_2.2.5>
  4010e6:	68 0b 00 00 00       	pushq  $0xb
  4010eb:	e9 30 ff ff ff       	jmpq   401020 <.plt>

00000000004010f0 <close@plt>:
  4010f0:	ff 25 82 5f 00 00    	jmpq   *0x5f82(%rip)        # 407078 <close@GLIBC_2.2.5>
  4010f6:	68 0c 00 00 00       	pushq  $0xc
  4010fb:	e9 20 ff ff ff       	jmpq   401020 <.plt>

0000000000401100 <read@plt>:
  401100:	ff 25 7a 5f 00 00    	jmpq   *0x5f7a(%rip)        # 407080 <read@GLIBC_2.2.5>
  401106:	68 0d 00 00 00       	pushq  $0xd
  40110b:	e9 10 ff ff ff       	jmpq   401020 <.plt>

0000000000401110 <strcmp@plt>:
  401110:	ff 25 72 5f 00 00    	jmpq   *0x5f72(%rip)        # 407088 <strcmp@GLIBC_2.2.5>
  401116:	68 0e 00 00 00       	pushq  $0xe
  40111b:	e9 00 ff ff ff       	jmpq   401020 <.plt>

0000000000401120 <signal@plt>:
  401120:	ff 25 6a 5f 00 00    	jmpq   *0x5f6a(%rip)        # 407090 <signal@GLIBC_2.2.5>
  401126:	68 0f 00 00 00       	pushq  $0xf
  40112b:	e9 f0 fe ff ff       	jmpq   401020 <.plt>

0000000000401130 <gethostbyname@plt>:
  401130:	ff 25 62 5f 00 00    	jmpq   *0x5f62(%rip)        # 407098 <gethostbyname@GLIBC_2.2.5>
  401136:	68 10 00 00 00       	pushq  $0x10
  40113b:	e9 e0 fe ff ff       	jmpq   401020 <.plt>

0000000000401140 <fprintf@plt>:
  401140:	ff 25 5a 5f 00 00    	jmpq   *0x5f5a(%rip)        # 4070a0 <fprintf@GLIBC_2.2.5>
  401146:	68 11 00 00 00       	pushq  $0x11
  40114b:	e9 d0 fe ff ff       	jmpq   401020 <.plt>

0000000000401150 <strtol@plt>:
  401150:	ff 25 52 5f 00 00    	jmpq   *0x5f52(%rip)        # 4070a8 <strtol@GLIBC_2.2.5>
  401156:	68 12 00 00 00       	pushq  $0x12
  40115b:	e9 c0 fe ff ff       	jmpq   401020 <.plt>

0000000000401160 <memcpy@plt>:
  401160:	ff 25 4a 5f 00 00    	jmpq   *0x5f4a(%rip)        # 4070b0 <memcpy@GLIBC_2.14>
  401166:	68 13 00 00 00       	pushq  $0x13
  40116b:	e9 b0 fe ff ff       	jmpq   401020 <.plt>

0000000000401170 <time@plt>:
  401170:	ff 25 42 5f 00 00    	jmpq   *0x5f42(%rip)        # 4070b8 <time@GLIBC_2.2.5>
  401176:	68 14 00 00 00       	pushq  $0x14
  40117b:	e9 a0 fe ff ff       	jmpq   401020 <.plt>

0000000000401180 <random@plt>:
  401180:	ff 25 3a 5f 00 00    	jmpq   *0x5f3a(%rip)        # 4070c0 <random@GLIBC_2.2.5>
  401186:	68 15 00 00 00       	pushq  $0x15
  40118b:	e9 90 fe ff ff       	jmpq   401020 <.plt>

0000000000401190 <__isoc99_sscanf@plt>:
  401190:	ff 25 32 5f 00 00    	jmpq   *0x5f32(%rip)        # 4070c8 <__isoc99_sscanf@GLIBC_2.7>
  401196:	68 16 00 00 00       	pushq  $0x16
  40119b:	e9 80 fe ff ff       	jmpq   401020 <.plt>

00000000004011a0 <munmap@plt>:
  4011a0:	ff 25 2a 5f 00 00    	jmpq   *0x5f2a(%rip)        # 4070d0 <munmap@GLIBC_2.2.5>
  4011a6:	68 17 00 00 00       	pushq  $0x17
  4011ab:	e9 70 fe ff ff       	jmpq   401020 <.plt>

00000000004011b0 <memmove@plt>:
  4011b0:	ff 25 22 5f 00 00    	jmpq   *0x5f22(%rip)        # 4070d8 <memmove@GLIBC_2.2.5>
  4011b6:	68 18 00 00 00       	pushq  $0x18
  4011bb:	e9 60 fe ff ff       	jmpq   401020 <.plt>

00000000004011c0 <fopen@plt>:
  4011c0:	ff 25 1a 5f 00 00    	jmpq   *0x5f1a(%rip)        # 4070e0 <fopen@GLIBC_2.2.5>
  4011c6:	68 19 00 00 00       	pushq  $0x19
  4011cb:	e9 50 fe ff ff       	jmpq   401020 <.plt>

00000000004011d0 <getopt@plt>:
  4011d0:	ff 25 12 5f 00 00    	jmpq   *0x5f12(%rip)        # 4070e8 <getopt@GLIBC_2.2.5>
  4011d6:	68 1a 00 00 00       	pushq  $0x1a
  4011db:	e9 40 fe ff ff       	jmpq   401020 <.plt>

00000000004011e0 <strtoul@plt>:
  4011e0:	ff 25 0a 5f 00 00    	jmpq   *0x5f0a(%rip)        # 4070f0 <strtoul@GLIBC_2.2.5>
  4011e6:	68 1b 00 00 00       	pushq  $0x1b
  4011eb:	e9 30 fe ff ff       	jmpq   401020 <.plt>

00000000004011f0 <gethostname@plt>:
  4011f0:	ff 25 02 5f 00 00    	jmpq   *0x5f02(%rip)        # 4070f8 <gethostname@GLIBC_2.2.5>
  4011f6:	68 1c 00 00 00       	pushq  $0x1c
  4011fb:	e9 20 fe ff ff       	jmpq   401020 <.plt>

0000000000401200 <sprintf@plt>:
  401200:	ff 25 fa 5e 00 00    	jmpq   *0x5efa(%rip)        # 407100 <sprintf@GLIBC_2.2.5>
  401206:	68 1d 00 00 00       	pushq  $0x1d
  40120b:	e9 10 fe ff ff       	jmpq   401020 <.plt>

0000000000401210 <exit@plt>:
  401210:	ff 25 f2 5e 00 00    	jmpq   *0x5ef2(%rip)        # 407108 <exit@GLIBC_2.2.5>
  401216:	68 1e 00 00 00       	pushq  $0x1e
  40121b:	e9 00 fe ff ff       	jmpq   401020 <.plt>

0000000000401220 <connect@plt>:
  401220:	ff 25 ea 5e 00 00    	jmpq   *0x5eea(%rip)        # 407110 <connect@GLIBC_2.2.5>
  401226:	68 1f 00 00 00       	pushq  $0x1f
  40122b:	e9 f0 fd ff ff       	jmpq   401020 <.plt>

0000000000401230 <getc@plt>:
  401230:	ff 25 e2 5e 00 00    	jmpq   *0x5ee2(%rip)        # 407118 <getc@GLIBC_2.2.5>
  401236:	68 20 00 00 00       	pushq  $0x20
  40123b:	e9 e0 fd ff ff       	jmpq   401020 <.plt>

0000000000401240 <socket@plt>:
  401240:	ff 25 da 5e 00 00    	jmpq   *0x5eda(%rip)        # 407120 <socket@GLIBC_2.2.5>
  401246:	68 21 00 00 00       	pushq  $0x21
  40124b:	e9 d0 fd ff ff       	jmpq   401020 <.plt>

Disassembly of section .text:

0000000000401250 <_start>:
  401250:	f3 0f 1e fa          	endbr64 
  401254:	31 ed                	xor    %ebp,%ebp
  401256:	49 89 d1             	mov    %rdx,%r9
  401259:	5e                   	pop    %rsi
  40125a:	48 89 e2             	mov    %rsp,%rdx
  40125d:	48 83 e4 f0          	and    $0xfffffffffffffff0,%rsp
  401261:	50                   	push   %rax
  401262:	54                   	push   %rsp
  401263:	45 31 c0             	xor    %r8d,%r8d
  401266:	31 c9                	xor    %ecx,%ecx
  401268:	48 c7 c7 ff 14 40 00 	mov    $0x4014ff,%rdi
  40126f:	ff 15 6b 5d 00 00    	callq  *0x5d6b(%rip)        # 406fe0 <__libc_start_main@GLIBC_2.34>
  401275:	f4                   	hlt    
  401276:	66 2e 0f 1f 84 00 00 	nopw   %cs:0x0(%rax,%rax,1)
  40127d:	00 00 00 

0000000000401280 <_dl_relocate_static_pie>:
  401280:	f3 0f 1e fa          	endbr64 
  401284:	c3                   	retq   
  401285:	66 2e 0f 1f 84 00 00 	nopw   %cs:0x0(%rax,%rax,1)
  40128c:	00 00 00 
  40128f:	90                   	nop

0000000000401290 <deregister_tm_clones>:
  401290:	48 8d 3d 21 62 00 00 	lea    0x6221(%rip),%rdi        # 4074b8 <__TMC_END__>
  401297:	48 8d 05 1a 62 00 00 	lea    0x621a(%rip),%rax        # 4074b8 <__TMC_END__>
  40129e:	48 39 f8             	cmp    %rdi,%rax
  4012a1:	74 15                	je     4012b8 <deregister_tm_clones+0x28>
  4012a3:	48 8b 05 3e 5d 00 00 	mov    0x5d3e(%rip),%rax        # 406fe8 <_ITM_deregisterTMCloneTable>
  4012aa:	48 85 c0             	test   %rax,%rax
  4012ad:	74 09                	je     4012b8 <deregister_tm_clones+0x28>
  4012af:	ff e0                	jmpq   *%rax
  4012b1:	0f 1f 80 00 00 00 00 	nopl   0x0(%rax)
  4012b8:	c3                   	retq   
  4012b9:	0f 1f 80 00 00 00 00 	nopl   0x0(%rax)

00000000004012c0 <register_tm_clones>:
  4012c0:	48 8d 3d f1 61 00 00 	lea    0x61f1(%rip),%rdi        # 4074b8 <__TMC_END__>
  4012c7:	48 8d 35 ea 61 00 00 	lea    0x61ea(%rip),%rsi        # 4074b8 <__TMC_END__>
  4012ce:	48 29 fe             	sub    %rdi,%rsi
  4012d1:	48 89 f0             	mov    %rsi,%rax
  4012d4:	48 c1 ee 3f          	shr    $0x3f,%rsi
  4012d8:	48 c1 f8 03          	sar    $0x3,%rax
  4012dc:	48 01 c6             	add    %rax,%rsi
  4012df:	48 d1 fe             	sar    %rsi
  4012e2:	74 14                	je     4012f8 <register_tm_clones+0x38>
  4012e4:	48 8b 05 0d 5d 00 00 	mov    0x5d0d(%rip),%rax        # 406ff8 <_ITM_registerTMCloneTable>
  4012eb:	48 85 c0             	test   %rax,%rax
  4012ee:	74 08                	je     4012f8 <register_tm_clones+0x38>
  4012f0:	ff e0                	jmpq   *%rax
  4012f2:	66 0f 1f 44 00 00    	nopw   0x0(%rax,%rax,1)
  4012f8:	c3                   	retq   
  4012f9:	0f 1f 80 00 00 00 00 	nopl   0x0(%rax)

0000000000401300 <__do_global_dtors_aux>:
  401300:	f3 0f 1e fa          	endbr64 
  401304:	80 3d fd 61 00 00 00 	cmpb   $0x0,0x61fd(%rip)        # 407508 <completed.0>
  40130b:	75 13                	jne    401320 <__do_global_dtors_aux+0x20>
  40130d:	55                   	push   %rbp
  40130e:	48 89 e5             	mov    %rsp,%rbp
  401311:	e8 7a ff ff ff       	callq  401290 <deregister_tm_clones>
  401316:	c6 05 eb 61 00 00 01 	movb   $0x1,0x61eb(%rip)        # 407508 <completed.0>
  40131d:	5d                   	pop    %rbp
  40131e:	c3                   	retq   
  40131f:	90                   	nop
  401320:	c3                   	retq   
  401321:	66 66 2e 0f 1f 84 00 	data16 nopw %cs:0x0(%rax,%rax,1)
  401328:	00 00 00 00 
  40132c:	0f 1f 40 00          	nopl   0x0(%rax)

0000000000401330 <frame_dummy>:
  401330:	f3 0f 1e fa          	endbr64 
  401334:	eb 8a                	jmp    4012c0 <register_tm_clones>

0000000000401336 <usage>:
  401336:	48 83 ec 08          	sub    $0x8,%rsp
  40133a:	48 89 fe             	mov    %rdi,%rsi
  40133d:	83 3d 14 62 00 00 00 	cmpl   $0x0,0x6214(%rip)        # 407558 <is_checker>
  401344:	74 41                	je     401387 <usage+0x51>
  401346:	bf 10 40 40 00       	mov    $0x404010,%edi
  40134b:	b8 00 00 00 00       	mov    $0x0,%eax
  401350:	e8 6b fd ff ff       	callq  4010c0 <printf@plt>
  401355:	bf 48 40 40 00       	mov    $0x404048,%edi
  40135a:	e8 21 fd ff ff       	callq  401080 <puts@plt>
  40135f:	bf c0 41 40 00       	mov    $0x4041c0,%edi
  401364:	e8 17 fd ff ff       	callq  401080 <puts@plt>
  401369:	bf 70 40 40 00       	mov    $0x404070,%edi
  40136e:	e8 0d fd ff ff       	callq  401080 <puts@plt>
  401373:	bf da 41 40 00       	mov    $0x4041da,%edi
  401378:	e8 03 fd ff ff       	callq  401080 <puts@plt>
  40137d:	bf 00 00 00 00       	mov    $0x0,%edi
  401382:	e8 89 fe ff ff       	callq  401210 <exit@plt>
  401387:	bf f6 41 40 00       	mov    $0x4041f6,%edi
  40138c:	b8 00 00 00 00       	mov    $0x0,%eax
  401391:	e8 2a fd ff ff       	callq  4010c0 <printf@plt>
  401396:	bf 98 40 40 00       	mov    $0x404098,%edi
  40139b:	e8 e0 fc ff ff       	callq  401080 <puts@plt>
  4013a0:	bf c0 40 40 00       	mov    $0x4040c0,%edi
  4013a5:	e8 d6 fc ff ff       	callq  401080 <puts@plt>
  4013aa:	bf 14 42 40 00       	mov    $0x404214,%edi
  4013af:	e8 cc fc ff ff       	callq  401080 <puts@plt>
  4013b4:	eb c7                	jmp    40137d <usage+0x47>

00000000004013b6 <initialize_target>:
  4013b6:	55                   	push   %rbp
  4013b7:	53                   	push   %rbx
  4013b8:	48 81 ec 08 25 00 00 	sub    $0x2508,%rsp
  4013bf:	89 f5                	mov    %esi,%ebp
  4013c1:	89 3d 81 61 00 00    	mov    %edi,0x6181(%rip)        # 407548 <check_level>
  4013c7:	8b 3d 9b 5d 00 00    	mov    0x5d9b(%rip),%edi        # 407168 <target_id>
  4013cd:	e8 00 1c 00 00       	callq  402fd2 <gencookie>
  4013d2:	89 c7                	mov    %eax,%edi
  4013d4:	89 05 7a 61 00 00    	mov    %eax,0x617a(%rip)        # 407554 <cookie>
  4013da:	e8 f3 1b 00 00       	callq  402fd2 <gencookie>
  4013df:	89 05 6b 61 00 00    	mov    %eax,0x616b(%rip)        # 407550 <authkey>
  4013e5:	8b 05 7d 5d 00 00    	mov    0x5d7d(%rip),%eax        # 407168 <target_id>
  4013eb:	8d 78 01             	lea    0x1(%rax),%edi
  4013ee:	e8 5d fc ff ff       	callq  401050 <srandom@plt>
  4013f3:	e8 88 fd ff ff       	callq  401180 <random@plt>
  4013f8:	89 c7                	mov    %eax,%edi
  4013fa:	e8 b8 02 00 00       	callq  4016b7 <scramble>
  4013ff:	89 c3                	mov    %eax,%ebx
  401401:	85 ed                	test   %ebp,%ebp
  401403:	75 3d                	jne    401442 <initialize_target+0x8c>
  401405:	b8 00 00 00 00       	mov    $0x0,%eax
  40140a:	01 d8                	add    %ebx,%eax
  40140c:	0f b7 c0             	movzwl %ax,%eax
  40140f:	8d 04 c5 00 01 00 00 	lea    0x100(,%rax,8),%eax
  401416:	89 c0                	mov    %eax,%eax
  401418:	48 89 05 91 60 00 00 	mov    %rax,0x6091(%rip)        # 4074b0 <buf_offset>
  40141f:	c6 05 12 61 00 00 72 	movb   $0x72,0x6112(%rip)        # 407538 <target_prefix>
  401426:	83 3d 7b 60 00 00 00 	cmpl   $0x0,0x607b(%rip)        # 4074a8 <notify>
  40142d:	74 09                	je     401438 <initialize_target+0x82>
  40142f:	83 3d 22 61 00 00 00 	cmpl   $0x0,0x6122(%rip)        # 407558 <is_checker>
  401436:	74 22                	je     40145a <initialize_target+0xa4>
  401438:	48 81 c4 08 25 00 00 	add    $0x2508,%rsp
  40143f:	5b                   	pop    %rbx
  401440:	5d                   	pop    %rbp
  401441:	c3                   	retq   
  401442:	bf 00 00 00 00       	mov    $0x0,%edi
  401447:	e8 24 fd ff ff       	callq  401170 <time@plt>
  40144c:	89 c7                	mov    %eax,%edi
  40144e:	e8 fd fb ff ff       	callq  401050 <srandom@plt>
  401453:	e8 28 fd ff ff       	callq  401180 <random@plt>
  401458:	eb b0                	jmp    40140a <initialize_target+0x54>
  40145a:	be 00 01 00 00       	mov    $0x100,%esi
  40145f:	48 89 e7             	mov    %rsp,%rdi
  401462:	e8 89 fd ff ff       	callq  4011f0 <gethostname@plt>
  401467:	89 c5                	mov    %eax,%ebp
  401469:	85 c0                	test   %eax,%eax
  40146b:	75 23                	jne    401490 <initialize_target+0xda>
  40146d:	89 c3                	mov    %eax,%ebx
  40146f:	48 63 c3             	movslq %ebx,%rax
  401472:	48 8b 3c c5 80 71 40 	mov    0x407180(,%rax,8),%rdi
  401479:	00 
  40147a:	48 85 ff             	test   %rdi,%rdi
  40147d:	74 2a                	je     4014a9 <initialize_target+0xf3>
  40147f:	48 89 e6             	mov    %rsp,%rsi
  401482:	e8 a9 fb ff ff       	callq  401030 <strcasecmp@plt>
  401487:	85 c0                	test   %eax,%eax
  401489:	74 19                	je     4014a4 <initialize_target+0xee>
  40148b:	83 c3 01             	add    $0x1,%ebx
  40148e:	eb df                	jmp    40146f <initialize_target+0xb9>
  401490:	bf f0 40 40 00       	mov    $0x4040f0,%edi
  401495:	e8 e6 fb ff ff       	callq  401080 <puts@plt>
  40149a:	bf 08 00 00 00       	mov    $0x8,%edi
  40149f:	e8 6c fd ff ff       	callq  401210 <exit@plt>
  4014a4:	bd 01 00 00 00       	mov    $0x1,%ebp
  4014a9:	85 ed                	test   %ebp,%ebp
  4014ab:	74 36                	je     4014e3 <initialize_target+0x12d>
  4014ad:	48 8d bc 24 00 01 00 	lea    0x100(%rsp),%rdi
  4014b4:	00 
  4014b5:	e8 80 18 00 00       	callq  402d3a <init_driver>
  4014ba:	85 c0                	test   %eax,%eax
  4014bc:	0f 89 76 ff ff ff    	jns    401438 <initialize_target+0x82>
  4014c2:	48 8d b4 24 00 01 00 	lea    0x100(%rsp),%rsi
  4014c9:	00 
  4014ca:	bf 68 41 40 00       	mov    $0x404168,%edi
  4014cf:	b8 00 00 00 00       	mov    $0x0,%eax
  4014d4:	e8 e7 fb ff ff       	callq  4010c0 <printf@plt>
  4014d9:	bf 08 00 00 00       	mov    $0x8,%edi
  4014de:	e8 2d fd ff ff       	callq  401210 <exit@plt>
  4014e3:	48 89 e6             	mov    %rsp,%rsi
  4014e6:	bf 28 41 40 00       	mov    $0x404128,%edi
  4014eb:	b8 00 00 00 00       	mov    $0x0,%eax
  4014f0:	e8 cb fb ff ff       	callq  4010c0 <printf@plt>
  4014f5:	bf 08 00 00 00       	mov    $0x8,%edi
  4014fa:	e8 11 fd ff ff       	callq  401210 <exit@plt>

00000000004014ff <main>:
  4014ff:	41 56                	push   %r14
  401501:	41 55                	push   %r13
  401503:	41 54                	push   %r12
  401505:	55                   	push   %rbp
  401506:	53                   	push   %rbx
  401507:	89 fd                	mov    %edi,%ebp
  401509:	48 89 f3             	mov    %rsi,%rbx
  40150c:	be 98 21 40 00       	mov    $0x402198,%esi
  401511:	bf 0b 00 00 00       	mov    $0xb,%edi
  401516:	e8 05 fc ff ff       	callq  401120 <signal@plt>
  40151b:	be 4a 21 40 00       	mov    $0x40214a,%esi
  401520:	bf 07 00 00 00       	mov    $0x7,%edi
  401525:	e8 f6 fb ff ff       	callq  401120 <signal@plt>
  40152a:	be e6 21 40 00       	mov    $0x4021e6,%esi
  40152f:	bf 04 00 00 00       	mov    $0x4,%edi
  401534:	e8 e7 fb ff ff       	callq  401120 <signal@plt>
  401539:	83 3d 18 60 00 00 00 	cmpl   $0x0,0x6018(%rip)        # 407558 <is_checker>
  401540:	75 25                	jne    401567 <main+0x68>
  401542:	41 bc 2d 42 40 00    	mov    $0x40422d,%r12d
  401548:	48 8b 05 71 5f 00 00 	mov    0x5f71(%rip),%rax        # 4074c0 <stdin@@GLIBC_2.2.5>
  40154f:	48 89 05 ea 5f 00 00 	mov    %rax,0x5fea(%rip)        # 407540 <infile>
  401556:	41 bd 00 00 00 00    	mov    $0x0,%r13d
  40155c:	41 be 00 00 00 00    	mov    $0x0,%r14d
  401562:	e9 81 00 00 00       	jmpq   4015e8 <main+0xe9>
  401567:	be 34 22 40 00       	mov    $0x402234,%esi
  40156c:	bf 0e 00 00 00       	mov    $0xe,%edi
  401571:	e8 aa fb ff ff       	callq  401120 <signal@plt>
  401576:	bf 05 00 00 00       	mov    $0x5,%edi
  40157b:	e8 60 fb ff ff       	callq  4010e0 <alarm@plt>
  401580:	41 bc 32 42 40 00    	mov    $0x404232,%r12d
  401586:	eb c0                	jmp    401548 <main+0x49>
  401588:	48 8b 3b             	mov    (%rbx),%rdi
  40158b:	e8 a6 fd ff ff       	callq  401336 <usage>
  401590:	be e5 44 40 00       	mov    $0x4044e5,%esi
  401595:	48 8b 3d 44 5f 00 00 	mov    0x5f44(%rip),%rdi        # 4074e0 <optarg@@GLIBC_2.2.5>
  40159c:	e8 1f fc ff ff       	callq  4011c0 <fopen@plt>
  4015a1:	48 89 05 98 5f 00 00 	mov    %rax,0x5f98(%rip)        # 407540 <infile>
  4015a8:	48 85 c0             	test   %rax,%rax
  4015ab:	75 3b                	jne    4015e8 <main+0xe9>
  4015ad:	48 8b 15 2c 5f 00 00 	mov    0x5f2c(%rip),%rdx        # 4074e0 <optarg@@GLIBC_2.2.5>
  4015b4:	be 3a 42 40 00       	mov    $0x40423a,%esi
  4015b9:	48 8b 3d 40 5f 00 00 	mov    0x5f40(%rip),%rdi        # 407500 <stderr@@GLIBC_2.2.5>
  4015c0:	e8 7b fb ff ff       	callq  401140 <fprintf@plt>
  4015c5:	b8 01 00 00 00       	mov    $0x1,%eax
  4015ca:	e9 c1 00 00 00       	jmpq   401690 <main+0x191>
  4015cf:	ba 10 00 00 00       	mov    $0x10,%edx
  4015d4:	be 00 00 00 00       	mov    $0x0,%esi
  4015d9:	48 8b 3d 00 5f 00 00 	mov    0x5f00(%rip),%rdi        # 4074e0 <optarg@@GLIBC_2.2.5>
  4015e0:	e8 fb fb ff ff       	callq  4011e0 <strtoul@plt>
  4015e5:	41 89 c6             	mov    %eax,%r14d
  4015e8:	4c 89 e2             	mov    %r12,%rdx
  4015eb:	48 89 de             	mov    %rbx,%rsi
  4015ee:	89 ef                	mov    %ebp,%edi
  4015f0:	e8 db fb ff ff       	callq  4011d0 <getopt@plt>
  4015f5:	3c ff                	cmp    $0xff,%al
  4015f7:	74 52                	je     40164b <main+0x14c>
  4015f9:	0f be f0             	movsbl %al,%esi
  4015fc:	83 e8 61             	sub    $0x61,%eax
  4015ff:	3c 10                	cmp    $0x10,%al
  401601:	77 31                	ja     401634 <main+0x135>
  401603:	0f b6 c0             	movzbl %al,%eax
  401606:	ff 24 c5 78 42 40 00 	jmpq   *0x404278(,%rax,8)
  40160d:	ba 0a 00 00 00       	mov    $0xa,%edx
  401612:	be 00 00 00 00       	mov    $0x0,%esi
  401617:	48 8b 3d c2 5e 00 00 	mov    0x5ec2(%rip),%rdi        # 4074e0 <optarg@@GLIBC_2.2.5>
  40161e:	e8 2d fb ff ff       	callq  401150 <strtol@plt>
  401623:	41 89 c5             	mov    %eax,%r13d
  401626:	eb c0                	jmp    4015e8 <main+0xe9>
  401628:	c7 05 76 5e 00 00 00 	movl   $0x0,0x5e76(%rip)        # 4074a8 <notify>
  40162f:	00 00 00 
  401632:	eb b4                	jmp    4015e8 <main+0xe9>
  401634:	bf 57 42 40 00       	mov    $0x404257,%edi
  401639:	b8 00 00 00 00       	mov    $0x0,%eax
  40163e:	e8 7d fa ff ff       	callq  4010c0 <printf@plt>
  401643:	48 8b 3b             	mov    (%rbx),%rdi
  401646:	e8 eb fc ff ff       	callq  401336 <usage>
  40164b:	be 01 00 00 00       	mov    $0x1,%esi
  401650:	44 89 ef             	mov    %r13d,%edi
  401653:	e8 5e fd ff ff       	callq  4013b6 <initialize_target>
  401658:	83 3d f9 5e 00 00 00 	cmpl   $0x0,0x5ef9(%rip)        # 407558 <is_checker>
  40165f:	74 09                	je     40166a <main+0x16b>
  401661:	44 39 35 e8 5e 00 00 	cmp    %r14d,0x5ee8(%rip)        # 407550 <authkey>
  401668:	75 2f                	jne    401699 <main+0x19a>
  40166a:	8b 35 e4 5e 00 00    	mov    0x5ee4(%rip),%esi        # 407554 <cookie>
  401670:	bf 6a 42 40 00       	mov    $0x40426a,%edi
  401675:	b8 00 00 00 00       	mov    $0x0,%eax
  40167a:	e8 41 fa ff ff       	callq  4010c0 <printf@plt>
  40167f:	48 8b 3d 2a 5e 00 00 	mov    0x5e2a(%rip),%rdi        # 4074b0 <buf_offset>
  401686:	e8 f7 0b 00 00       	callq  402282 <launch>
  40168b:	b8 00 00 00 00       	mov    $0x0,%eax
  401690:	5b                   	pop    %rbx
  401691:	5d                   	pop    %rbp
  401692:	41 5c                	pop    %r12
  401694:	41 5d                	pop    %r13
  401696:	41 5e                	pop    %r14
  401698:	c3                   	retq   
  401699:	44 89 f6             	mov    %r14d,%esi
  40169c:	bf 90 41 40 00       	mov    $0x404190,%edi
  4016a1:	b8 00 00 00 00       	mov    $0x0,%eax
  4016a6:	e8 15 fa ff ff       	callq  4010c0 <printf@plt>
  4016ab:	b8 00 00 00 00       	mov    $0x0,%eax
  4016b0:	e8 99 07 00 00       	callq  401e4e <check_fail>
  4016b5:	eb b3                	jmp    40166a <main+0x16b>

00000000004016b7 <scramble>:
  4016b7:	b8 00 00 00 00       	mov    $0x0,%eax
  4016bc:	eb 11                	jmp    4016cf <scramble+0x18>
  4016be:	69 d0 d1 40 00 00    	imul   $0x40d1,%eax,%edx
  4016c4:	01 fa                	add    %edi,%edx
  4016c6:	89 c1                	mov    %eax,%ecx
  4016c8:	89 54 8c c8          	mov    %edx,-0x38(%rsp,%rcx,4)
  4016cc:	83 c0 01             	add    $0x1,%eax
  4016cf:	83 f8 09             	cmp    $0x9,%eax
  4016d2:	76 ea                	jbe    4016be <scramble+0x7>
  4016d4:	8b 44 24 c8          	mov    -0x38(%rsp),%eax
  4016d8:	69 c0 d8 d4 00 00    	imul   $0xd4d8,%eax,%eax
  4016de:	89 44 24 c8          	mov    %eax,-0x38(%rsp)
  4016e2:	8b 44 24 c8          	mov    -0x38(%rsp),%eax
  4016e6:	69 c0 51 3b 00 00    	imul   $0x3b51,%eax,%eax
  4016ec:	89 44 24 c8          	mov    %eax,-0x38(%rsp)
  4016f0:	8b 44 24 e0          	mov    -0x20(%rsp),%eax
  4016f4:	69 c0 c8 8d 00 00    	imul   $0x8dc8,%eax,%eax
  4016fa:	89 44 24 e0          	mov    %eax,-0x20(%rsp)
  4016fe:	8b 44 24 d8          	mov    -0x28(%rsp),%eax
  401702:	69 c0 01 87 00 00    	imul   $0x8701,%eax,%eax
  401708:	89 44 24 d8          	mov    %eax,-0x28(%rsp)
  40170c:	8b 44 24 d8          	mov    -0x28(%rsp),%eax
  401710:	69 c0 ca 73 00 00    	imul   $0x73ca,%eax,%eax
  401716:	89 44 24 d8          	mov    %eax,-0x28(%rsp)
  40171a:	8b 44 24 ec          	mov    -0x14(%rsp),%eax
  40171e:	69 c0 01 c3 00 00    	imul   $0xc301,%eax,%eax
  401724:	89 44 24 ec          	mov    %eax,-0x14(%rsp)
  401728:	8b 44 24 cc          	mov    -0x34(%rsp),%eax
  40172c:	69 c0 3a 9e 00 00    	imul   $0x9e3a,%eax,%eax
  401732:	89 44 24 cc          	mov    %eax,-0x34(%rsp)
  401736:	8b 44 24 dc          	mov    -0x24(%rsp),%eax
  40173a:	69 c0 68 94 00 00    	imul   $0x9468,%eax,%eax
  401740:	89 44 24 dc          	mov    %eax,-0x24(%rsp)
  401744:	8b 44 24 dc          	mov    -0x24(%rsp),%eax
  401748:	69 c0 11 68 00 00    	imul   $0x6811,%eax,%eax
  40174e:	89 44 24 dc          	mov    %eax,-0x24(%rsp)
  401752:	8b 44 24 d0          	mov    -0x30(%rsp),%eax
  401756:	69 c0 23 22 00 00    	imul   $0x2223,%eax,%eax
  40175c:	89 44 24 d0          	mov    %eax,-0x30(%rsp)
  401760:	8b 44 24 e8          	mov    -0x18(%rsp),%eax
  401764:	69 c0 de 63 00 00    	imul   $0x63de,%eax,%eax
  40176a:	89 44 24 e8          	mov    %eax,-0x18(%rsp)
  40176e:	8b 44 24 e4          	mov    -0x1c(%rsp),%eax
  401772:	69 c0 91 eb 00 00    	imul   $0xeb91,%eax,%eax
  401778:	89 44 24 e4          	mov    %eax,-0x1c(%rsp)
  40177c:	8b 44 24 e4          	mov    -0x1c(%rsp),%eax
  401780:	69 c0 ad c4 00 00    	imul   $0xc4ad,%eax,%eax
  401786:	89 44 24 e4          	mov    %eax,-0x1c(%rsp)
  40178a:	8b 44 24 e8          	mov    -0x18(%rsp),%eax
  40178e:	69 c0 b4 ff 00 00    	imul   $0xffb4,%eax,%eax
  401794:	89 44 24 e8          	mov    %eax,-0x18(%rsp)
  401798:	8b 44 24 d8          	mov    -0x28(%rsp),%eax
  40179c:	69 c0 7e a2 00 00    	imul   $0xa27e,%eax,%eax
  4017a2:	89 44 24 d8          	mov    %eax,-0x28(%rsp)
  4017a6:	8b 44 24 d8          	mov    -0x28(%rsp),%eax
  4017aa:	69 c0 70 48 00 00    	imul   $0x4870,%eax,%eax
  4017b0:	89 44 24 d8          	mov    %eax,-0x28(%rsp)
  4017b4:	8b 44 24 cc          	mov    -0x34(%rsp),%eax
  4017b8:	69 c0 16 47 00 00    	imul   $0x4716,%eax,%eax
  4017be:	89 44 24 cc          	mov    %eax,-0x34(%rsp)
  4017c2:	8b 44 24 e8          	mov    -0x18(%rsp),%eax
  4017c6:	69 c0 d3 a6 00 00    	imul   $0xa6d3,%eax,%eax
  4017cc:	89 44 24 e8          	mov    %eax,-0x18(%rsp)
  4017d0:	8b 44 24 e8          	mov    -0x18(%rsp),%eax
  4017d4:	69 c0 72 4e 00 00    	imul   $0x4e72,%eax,%eax
  4017da:	89 44 24 e8          	mov    %eax,-0x18(%rsp)
  4017de:	8b 44 24 e8          	mov    -0x18(%rsp),%eax
  4017e2:	69 c0 ce d6 00 00    	imul   $0xd6ce,%eax,%eax
  4017e8:	89 44 24 e8          	mov    %eax,-0x18(%rsp)
  4017ec:	8b 44 24 e4          	mov    -0x1c(%rsp),%eax
  4017f0:	69 c0 58 7e 00 00    	imul   $0x7e58,%eax,%eax
  4017f6:	89 44 24 e4          	mov    %eax,-0x1c(%rsp)
  4017fa:	8b 44 24 e4          	mov    -0x1c(%rsp),%eax
  4017fe:	69 c0 48 f9 00 00    	imul   $0xf948,%eax,%eax
  401804:	89 44 24 e4          	mov    %eax,-0x1c(%rsp)
  401808:	8b 44 24 d0          	mov    -0x30(%rsp),%eax
  40180c:	69 c0 d9 19 00 00    	imul   $0x19d9,%eax,%eax
  401812:	89 44 24 d0          	mov    %eax,-0x30(%rsp)
  401816:	8b 44 24 d0          	mov    -0x30(%rsp),%eax
  40181a:	69 c0 42 23 00 00    	imul   $0x2342,%eax,%eax
  401820:	89 44 24 d0          	mov    %eax,-0x30(%rsp)
  401824:	8b 44 24 ec          	mov    -0x14(%rsp),%eax
  401828:	69 c0 d7 d2 00 00    	imul   $0xd2d7,%eax,%eax
  40182e:	89 44 24 ec          	mov    %eax,-0x14(%rsp)
  401832:	8b 44 24 e4          	mov    -0x1c(%rsp),%eax
  401836:	69 c0 20 a8 00 00    	imul   $0xa820,%eax,%eax
  40183c:	89 44 24 e4          	mov    %eax,-0x1c(%rsp)
  401840:	8b 44 24 e4          	mov    -0x1c(%rsp),%eax
  401844:	69 c0 c0 11 00 00    	imul   $0x11c0,%eax,%eax
  40184a:	89 44 24 e4          	mov    %eax,-0x1c(%rsp)
  40184e:	8b 44 24 dc          	mov    -0x24(%rsp),%eax
  401852:	69 c0 5c 02 00 00    	imul   $0x25c,%eax,%eax
  401858:	89 44 24 dc          	mov    %eax,-0x24(%rsp)
  40185c:	8b 44 24 d8          	mov    -0x28(%rsp),%eax
  401860:	69 c0 1a 03 00 00    	imul   $0x31a,%eax,%eax
  401866:	89 44 24 d8          	mov    %eax,-0x28(%rsp)
  40186a:	8b 44 24 cc          	mov    -0x34(%rsp),%eax
  40186e:	69 c0 0b de 00 00    	imul   $0xde0b,%eax,%eax
  401874:	89 44 24 cc          	mov    %eax,-0x34(%rsp)
  401878:	8b 44 24 cc          	mov    -0x34(%rsp),%eax
  40187c:	69 c0 ff 4f 00 00    	imul   $0x4fff,%eax,%eax
  401882:	89 44 24 cc          	mov    %eax,-0x34(%rsp)
  401886:	8b 44 24 e4          	mov    -0x1c(%rsp),%eax
  40188a:	69 c0 ef 1c 00 00    	imul   $0x1cef,%eax,%eax
  401890:	89 44 24 e4          	mov    %eax,-0x1c(%rsp)
  401894:	8b 44 24 d0          	mov    -0x30(%rsp),%eax
  401898:	69 c0 3d aa 00 00    	imul   $0xaa3d,%eax,%eax
  40189e:	89 44 24 d0          	mov    %eax,-0x30(%rsp)
  4018a2:	8b 44 24 d4          	mov    -0x2c(%rsp),%eax
  4018a6:	69 c0 f4 6b 00 00    	imul   $0x6bf4,%eax,%eax
  4018ac:	89 44 24 d4          	mov    %eax,-0x2c(%rsp)
  4018b0:	8b 44 24 d0          	mov    -0x30(%rsp),%eax
  4018b4:	69 c0 96 f1 00 00    	imul   $0xf196,%eax,%eax
  4018ba:	89 44 24 d0          	mov    %eax,-0x30(%rsp)
  4018be:	8b 44 24 dc          	mov    -0x24(%rsp),%eax
  4018c2:	69 c0 eb ba 00 00    	imul   $0xbaeb,%eax,%eax
  4018c8:	89 44 24 dc          	mov    %eax,-0x24(%rsp)
  4018cc:	8b 44 24 cc          	mov    -0x34(%rsp),%eax
  4018d0:	69 c0 92 dc 00 00    	imul   $0xdc92,%eax,%eax
  4018d6:	89 44 24 cc          	mov    %eax,-0x34(%rsp)
  4018da:	8b 44 24 cc          	mov    -0x34(%rsp),%eax
  4018de:	69 c0 82 8c 00 00    	imul   $0x8c82,%eax,%eax
  4018e4:	89 44 24 cc          	mov    %eax,-0x34(%rsp)
  4018e8:	8b 44 24 e0          	mov    -0x20(%rsp),%eax
  4018ec:	69 c0 e3 41 00 00    	imul   $0x41e3,%eax,%eax
  4018f2:	89 44 24 e0          	mov    %eax,-0x20(%rsp)
  4018f6:	8b 44 24 e0          	mov    -0x20(%rsp),%eax
  4018fa:	69 c0 55 78 00 00    	imul   $0x7855,%eax,%eax
  401900:	89 44 24 e0          	mov    %eax,-0x20(%rsp)
  401904:	8b 44 24 e4          	mov    -0x1c(%rsp),%eax
  401908:	69 c0 2a f5 00 00    	imul   $0xf52a,%eax,%eax
  40190e:	89 44 24 e4          	mov    %eax,-0x1c(%rsp)
  401912:	8b 44 24 e0          	mov    -0x20(%rsp),%eax
  401916:	69 c0 70 4b 00 00    	imul   $0x4b70,%eax,%eax
  40191c:	89 44 24 e0          	mov    %eax,-0x20(%rsp)
  401920:	8b 44 24 c8          	mov    -0x38(%rsp),%eax
  401924:	69 c0 26 b4 00 00    	imul   $0xb426,%eax,%eax
  40192a:	89 44 24 c8          	mov    %eax,-0x38(%rsp)
  40192e:	8b 44 24 d4          	mov    -0x2c(%rsp),%eax
  401932:	69 c0 57 dd 00 00    	imul   $0xdd57,%eax,%eax
  401938:	89 44 24 d4          	mov    %eax,-0x2c(%rsp)
  40193c:	8b 44 24 e0          	mov    -0x20(%rsp),%eax
  401940:	69 c0 dd 4f 00 00    	imul   $0x4fdd,%eax,%eax
  401946:	89 44 24 e0          	mov    %eax,-0x20(%rsp)
  40194a:	8b 44 24 e8          	mov    -0x18(%rsp),%eax
  40194e:	69 c0 da 5c 00 00    	imul   $0x5cda,%eax,%eax
  401954:	89 44 24 e8          	mov    %eax,-0x18(%rsp)
  401958:	8b 44 24 d4          	mov    -0x2c(%rsp),%eax
  40195c:	69 c0 de e1 00 00    	imul   $0xe1de,%eax,%eax
  401962:	89 44 24 d4          	mov    %eax,-0x2c(%rsp)
  401966:	8b 44 24 d4          	mov    -0x2c(%rsp),%eax
  40196a:	69 c0 f1 36 00 00    	imul   $0x36f1,%eax,%eax
  401970:	89 44 24 d4          	mov    %eax,-0x2c(%rsp)
  401974:	8b 44 24 dc          	mov    -0x24(%rsp),%eax
  401978:	69 c0 8c 3d 00 00    	imul   $0x3d8c,%eax,%eax
  40197e:	89 44 24 dc          	mov    %eax,-0x24(%rsp)
  401982:	8b 44 24 e8          	mov    -0x18(%rsp),%eax
  401986:	69 c0 ca 84 00 00    	imul   $0x84ca,%eax,%eax
  40198c:	89 44 24 e8          	mov    %eax,-0x18(%rsp)
  401990:	8b 44 24 ec          	mov    -0x14(%rsp),%eax
  401994:	69 c0 a8 e5 00 00    	imul   $0xe5a8,%eax,%eax
  40199a:	89 44 24 ec          	mov    %eax,-0x14(%rsp)
  40199e:	8b 44 24 e8          	mov    -0x18(%rsp),%eax
  4019a2:	69 c0 11 9f 00 00    	imul   $0x9f11,%eax,%eax
  4019a8:	89 44 24 e8          	mov    %eax,-0x18(%rsp)
  4019ac:	8b 44 24 e4          	mov    -0x1c(%rsp),%eax
  4019b0:	69 c0 e9 f3 00 00    	imul   $0xf3e9,%eax,%eax
  4019b6:	89 44 24 e4          	mov    %eax,-0x1c(%rsp)
  4019ba:	8b 44 24 c8          	mov    -0x38(%rsp),%eax
  4019be:	69 c0 a5 b8 00 00    	imul   $0xb8a5,%eax,%eax
  4019c4:	89 44 24 c8          	mov    %eax,-0x38(%rsp)
  4019c8:	8b 44 24 d8          	mov    -0x28(%rsp),%eax
  4019cc:	69 c0 58 db 00 00    	imul   $0xdb58,%eax,%eax
  4019d2:	89 44 24 d8          	mov    %eax,-0x28(%rsp)
  4019d6:	8b 44 24 d0          	mov    -0x30(%rsp),%eax
  4019da:	69 c0 87 4a 00 00    	imul   $0x4a87,%eax,%eax
  4019e0:	89 44 24 d0          	mov    %eax,-0x30(%rsp)
  4019e4:	8b 44 24 d4          	mov    -0x2c(%rsp),%eax
  4019e8:	69 c0 6f 51 00 00    	imul   $0x516f,%eax,%eax
  4019ee:	89 44 24 d4          	mov    %eax,-0x2c(%rsp)
  4019f2:	8b 44 24 cc          	mov    -0x34(%rsp),%eax
  4019f6:	69 c0 6c d7 00 00    	imul   $0xd76c,%eax,%eax
  4019fc:	89 44 24 cc          	mov    %eax,-0x34(%rsp)
  401a00:	8b 44 24 cc          	mov    -0x34(%rsp),%eax
  401a04:	69 c0 c3 e3 00 00    	imul   $0xe3c3,%eax,%eax
  401a0a:	89 44 24 cc          	mov    %eax,-0x34(%rsp)
  401a0e:	8b 44 24 d0          	mov    -0x30(%rsp),%eax
  401a12:	69 c0 d6 bc 00 00    	imul   $0xbcd6,%eax,%eax
  401a18:	89 44 24 d0          	mov    %eax,-0x30(%rsp)
  401a1c:	8b 44 24 d0          	mov    -0x30(%rsp),%eax
  401a20:	69 c0 25 70 00 00    	imul   $0x7025,%eax,%eax
  401a26:	89 44 24 d0          	mov    %eax,-0x30(%rsp)
  401a2a:	8b 44 24 e4          	mov    -0x1c(%rsp),%eax
  401a2e:	69 c0 7c d3 00 00    	imul   $0xd37c,%eax,%eax
  401a34:	89 44 24 e4          	mov    %eax,-0x1c(%rsp)
  401a38:	8b 44 24 e8          	mov    -0x18(%rsp),%eax
  401a3c:	69 c0 7a 93 00 00    	imul   $0x937a,%eax,%eax
  401a42:	89 44 24 e8          	mov    %eax,-0x18(%rsp)
  401a46:	8b 44 24 d8          	mov    -0x28(%rsp),%eax
  401a4a:	69 c0 1e de 00 00    	imul   $0xde1e,%eax,%eax
  401a50:	89 44 24 d8          	mov    %eax,-0x28(%rsp)
  401a54:	8b 44 24 e8          	mov    -0x18(%rsp),%eax
  401a58:	69 c0 53 ad 00 00    	imul   $0xad53,%eax,%eax
  401a5e:	89 44 24 e8          	mov    %eax,-0x18(%rsp)
  401a62:	8b 44 24 cc          	mov    -0x34(%rsp),%eax
  401a66:	8d 04 80             	lea    (%rax,%rax,4),%eax
  401a69:	c1 e0 03             	shl    $0x3,%eax
  401a6c:	89 44 24 cc          	mov    %eax,-0x34(%rsp)
  401a70:	8b 44 24 e8          	mov    -0x18(%rsp),%eax
  401a74:	69 c0 9e a2 00 00    	imul   $0xa29e,%eax,%eax
  401a7a:	89 44 24 e8          	mov    %eax,-0x18(%rsp)
  401a7e:	8b 44 24 dc          	mov    -0x24(%rsp),%eax
  401a82:	69 c0 35 55 00 00    	imul   $0x5535,%eax,%eax
  401a88:	89 44 24 dc          	mov    %eax,-0x24(%rsp)
  401a8c:	8b 44 24 d0          	mov    -0x30(%rsp),%eax
  401a90:	69 c0 cd ca 00 00    	imul   $0xcacd,%eax,%eax
  401a96:	89 44 24 d0          	mov    %eax,-0x30(%rsp)
  401a9a:	8b 44 24 d4          	mov    -0x2c(%rsp),%eax
  401a9e:	69 c0 53 cc 00 00    	imul   $0xcc53,%eax,%eax
  401aa4:	89 44 24 d4          	mov    %eax,-0x2c(%rsp)
  401aa8:	8b 44 24 d8          	mov    -0x28(%rsp),%eax
  401aac:	69 c0 d4 3e 00 00    	imul   $0x3ed4,%eax,%eax
  401ab2:	89 44 24 d8          	mov    %eax,-0x28(%rsp)
  401ab6:	8b 44 24 d4          	mov    -0x2c(%rsp),%eax
  401aba:	69 c0 a7 76 00 00    	imul   $0x76a7,%eax,%eax
  401ac0:	89 44 24 d4          	mov    %eax,-0x2c(%rsp)
  401ac4:	8b 44 24 dc          	mov    -0x24(%rsp),%eax
  401ac8:	69 c0 d1 ac 00 00    	imul   $0xacd1,%eax,%eax
  401ace:	89 44 24 dc          	mov    %eax,-0x24(%rsp)
  401ad2:	8b 44 24 d4          	mov    -0x2c(%rsp),%eax
  401ad6:	69 c0 d9 95 00 00    	imul   $0x95d9,%eax,%eax
  401adc:	89 44 24 d4          	mov    %eax,-0x2c(%rsp)
  401ae0:	8b 44 24 cc          	mov    -0x34(%rsp),%eax
  401ae4:	69 c0 d6 02 00 00    	imul   $0x2d6,%eax,%eax
  401aea:	89 44 24 cc          	mov    %eax,-0x34(%rsp)
  401aee:	8b 44 24 e8          	mov    -0x18(%rsp),%eax
  401af2:	69 c0 35 c4 00 00    	imul   $0xc435,%eax,%eax
  401af8:	89 44 24 e8          	mov    %eax,-0x18(%rsp)
  401afc:	8b 44 24 e8          	mov    -0x18(%rsp),%eax
  401b00:	69 c0 60 6c 00 00    	imul   $0x6c60,%eax,%eax
  401b06:	89 44 24 e8          	mov    %eax,-0x18(%rsp)
  401b0a:	b8 00 00 00 00       	mov    $0x0,%eax
  401b0f:	ba 00 00 00 00       	mov    $0x0,%edx
  401b14:	eb 0b                	jmp    401b21 <scramble+0x46a>
  401b16:	89 c1                	mov    %eax,%ecx
  401b18:	8b 4c 8c c8          	mov    -0x38(%rsp,%rcx,4),%ecx
  401b1c:	01 ca                	add    %ecx,%edx
  401b1e:	83 c0 01             	add    $0x1,%eax
  401b21:	83 f8 09             	cmp    $0x9,%eax
  401b24:	76 f0                	jbe    401b16 <scramble+0x45f>
  401b26:	89 d0                	mov    %edx,%eax
  401b28:	c3                   	retq   

0000000000401b29 <getbuf>:
  401b29:	48 83 ec 38          	sub    $0x38,%rsp
  401b2d:	48 89 e7             	mov    %rsp,%rdi
  401b30:	e8 48 03 00 00       	callq  401e7d <Gets>
  401b35:	b8 01 00 00 00       	mov    $0x1,%eax
  401b3a:	48 83 c4 38          	add    $0x38,%rsp
  401b3e:	c3                   	retq   

0000000000401b3f <touch1>:
  401b3f:	48 83 ec 08          	sub    $0x8,%rsp
  401b43:	c7 05 ff 59 00 00 01 	movl   $0x1,0x59ff(%rip)        # 40754c <vlevel>
  401b4a:	00 00 00 
  401b4d:	bf 38 43 40 00       	mov    $0x404338,%edi
  401b52:	e8 29 f5 ff ff       	callq  401080 <puts@plt>
  401b57:	bf 01 00 00 00       	mov    $0x1,%edi
  401b5c:	e8 0f 05 00 00       	callq  402070 <validate>
  401b61:	bf 00 00 00 00       	mov    $0x0,%edi
  401b66:	e8 a5 f6 ff ff       	callq  401210 <exit@plt>

0000000000401b6b <touch2>:
  401b6b:	48 83 ec 08          	sub    $0x8,%rsp
  401b6f:	89 fe                	mov    %edi,%esi
  401b71:	c7 05 d1 59 00 00 02 	movl   $0x2,0x59d1(%rip)        # 40754c <vlevel>
  401b78:	00 00 00 
  401b7b:	39 3d d3 59 00 00    	cmp    %edi,0x59d3(%rip)        # 407554 <cookie>
  401b81:	74 23                	je     401ba6 <touch2+0x3b>
  401b83:	bf 88 43 40 00       	mov    $0x404388,%edi
  401b88:	b8 00 00 00 00       	mov    $0x0,%eax
  401b8d:	e8 2e f5 ff ff       	callq  4010c0 <printf@plt>
  401b92:	bf 02 00 00 00       	mov    $0x2,%edi
  401b97:	e8 86 05 00 00       	callq  402122 <fail>
  401b9c:	bf 00 00 00 00       	mov    $0x0,%edi
  401ba1:	e8 6a f6 ff ff       	callq  401210 <exit@plt>
  401ba6:	bf 60 43 40 00       	mov    $0x404360,%edi
  401bab:	b8 00 00 00 00       	mov    $0x0,%eax
  401bb0:	e8 0b f5 ff ff       	callq  4010c0 <printf@plt>
  401bb5:	bf 02 00 00 00       	mov    $0x2,%edi
  401bba:	e8 b1 04 00 00       	callq  402070 <validate>
  401bbf:	eb db                	jmp    401b9c <touch2+0x31>

0000000000401bc1 <hexmatch>:
  401bc1:	41 54                	push   %r12
  401bc3:	55                   	push   %rbp
  401bc4:	53                   	push   %rbx
  401bc5:	48 83 ec 70          	sub    $0x70,%rsp
  401bc9:	89 fd                	mov    %edi,%ebp
  401bcb:	48 89 f3             	mov    %rsi,%rbx
  401bce:	e8 ad f5 ff ff       	callq  401180 <random@plt>
  401bd3:	48 89 c1             	mov    %rax,%rcx
  401bd6:	48 ba 0b d7 a3 70 3d 	movabs $0xa3d70a3d70a3d70b,%rdx
  401bdd:	0a d7 a3 
  401be0:	48 f7 ea             	imul   %rdx
  401be3:	48 01 ca             	add    %rcx,%rdx
  401be6:	48 c1 fa 06          	sar    $0x6,%rdx
  401bea:	48 89 c8             	mov    %rcx,%rax
  401bed:	48 c1 f8 3f          	sar    $0x3f,%rax
  401bf1:	48 29 c2             	sub    %rax,%rdx
  401bf4:	48 8d 04 92          	lea    (%rdx,%rdx,4),%rax
  401bf8:	48 8d 04 80          	lea    (%rax,%rax,4),%rax
  401bfc:	48 c1 e0 02          	shl    $0x2,%rax
  401c00:	48 29 c1             	sub    %rax,%rcx
  401c03:	4c 8d 24 0c          	lea    (%rsp,%rcx,1),%r12
  401c07:	89 ea                	mov    %ebp,%edx
  401c09:	be 55 43 40 00       	mov    $0x404355,%esi
  401c0e:	4c 89 e7             	mov    %r12,%rdi
  401c11:	b8 00 00 00 00       	mov    $0x0,%eax
  401c16:	e8 e5 f5 ff ff       	callq  401200 <sprintf@plt>
  401c1b:	ba 09 00 00 00       	mov    $0x9,%edx
  401c20:	4c 89 e6             	mov    %r12,%rsi
  401c23:	48 89 df             	mov    %rbx,%rdi
  401c26:	e8 35 f4 ff ff       	callq  401060 <strncmp@plt>
  401c2b:	85 c0                	test   %eax,%eax
  401c2d:	0f 94 c0             	sete   %al
  401c30:	0f b6 c0             	movzbl %al,%eax
  401c33:	48 83 c4 70          	add    $0x70,%rsp
  401c37:	5b                   	pop    %rbx
  401c38:	5d                   	pop    %rbp
  401c39:	41 5c                	pop    %r12
  401c3b:	c3                   	retq   

0000000000401c3c <touch3>:
  401c3c:	53                   	push   %rbx
  401c3d:	48 89 fb             	mov    %rdi,%rbx
  401c40:	c7 05 02 59 00 00 03 	movl   $0x3,0x5902(%rip)        # 40754c <vlevel>
  401c47:	00 00 00 
  401c4a:	48 89 fe             	mov    %rdi,%rsi
  401c4d:	8b 3d 01 59 00 00    	mov    0x5901(%rip),%edi        # 407554 <cookie>
  401c53:	e8 69 ff ff ff       	callq  401bc1 <hexmatch>
  401c58:	85 c0                	test   %eax,%eax
  401c5a:	74 26                	je     401c82 <touch3+0x46>
  401c5c:	48 89 de             	mov    %rbx,%rsi
  401c5f:	bf b0 43 40 00       	mov    $0x4043b0,%edi
  401c64:	b8 00 00 00 00       	mov    $0x0,%eax
  401c69:	e8 52 f4 ff ff       	callq  4010c0 <printf@plt>
  401c6e:	bf 03 00 00 00       	mov    $0x3,%edi
  401c73:	e8 f8 03 00 00       	callq  402070 <validate>
  401c78:	bf 00 00 00 00       	mov    $0x0,%edi
  401c7d:	e8 8e f5 ff ff       	callq  401210 <exit@plt>
  401c82:	48 89 de             	mov    %rbx,%rsi
  401c85:	bf d8 43 40 00       	mov    $0x4043d8,%edi
  401c8a:	b8 00 00 00 00       	mov    $0x0,%eax
  401c8f:	e8 2c f4 ff ff       	callq  4010c0 <printf@plt>
  401c94:	bf 03 00 00 00       	mov    $0x3,%edi
  401c99:	e8 84 04 00 00       	callq  402122 <fail>
  401c9e:	eb d8                	jmp    401c78 <touch3+0x3c>

0000000000401ca0 <test>:
  401ca0:	48 83 ec 08          	sub    $0x8,%rsp
  401ca4:	b8 00 00 00 00       	mov    $0x0,%eax
  401ca9:	e8 7b fe ff ff       	callq  401b29 <getbuf>
  401cae:	89 c6                	mov    %eax,%esi
  401cb0:	bf 00 44 40 00       	mov    $0x404400,%edi
  401cb5:	b8 00 00 00 00       	mov    $0x0,%eax
  401cba:	e8 01 f4 ff ff       	callq  4010c0 <printf@plt>
  401cbf:	48 83 c4 08          	add    $0x8,%rsp
  401cc3:	c3                   	retq   

0000000000401cc4 <start_farm>:
  401cc4:	b8 01 00 00 00       	mov    $0x1,%eax
  401cc9:	c3                   	retq   

0000000000401cca <setval_496>:
  401cca:	c7 07 48 89 c7 94    	movl   $0x94c78948,(%rdi)
  401cd0:	c3                   	retq   

0000000000401cd1 <getval_277>:
  401cd1:	b8 48 89 c7 c3       	mov    $0xc3c78948,%eax
  401cd6:	c3                   	retq   

0000000000401cd7 <addval_497>:
  401cd7:	8d 87 48 89 c7 c3    	lea    -0x3c3876b8(%rdi),%eax
  401cdd:	c3                   	retq   

0000000000401cde <setval_467>:
  401cde:	c7 07 d2 d5 4f 58    	movl   $0x584fd5d2,(%rdi)
  401ce4:	c3                   	retq   

0000000000401ce5 <addval_206>:
  401ce5:	8d 87 58 90 91 c3    	lea    -0x3c6e6fa8(%rdi),%eax
  401ceb:	c3                   	retq   

0000000000401cec <getval_465>:
  401cec:	b8 4b 29 58 90       	mov    $0x9058294b,%eax
  401cf1:	c3                   	retq   

0000000000401cf2 <addval_214>:
  401cf2:	8d 87 d8 90 90 c3    	lea    -0x3c6f6f28(%rdi),%eax
  401cf8:	c3                   	retq   

0000000000401cf9 <addval_375>:
  401cf9:	8d 87 48 89 c7 94    	lea    -0x6b3876b8(%rdi),%eax
  401cff:	c3                   	retq   

0000000000401d00 <mid_farm>:
  401d00:	b8 01 00 00 00       	mov    $0x1,%eax
  401d05:	c3                   	retq   

0000000000401d06 <add_xy>:
  401d06:	48 8d 04 37          	lea    (%rdi,%rsi,1),%rax
  401d0a:	c3                   	retq   

0000000000401d0b <getval_195>:
  401d0b:	b8 48 89 e0 c7       	mov    $0xc7e08948,%eax
  401d10:	c3                   	retq   

0000000000401d11 <setval_499>:
  401d11:	c7 07 89 c1 90 c3    	movl   $0xc390c189,(%rdi)
  401d17:	c3                   	retq   

0000000000401d18 <setval_318>:
  401d18:	c7 07 a9 d6 20 c0    	movl   $0xc020d6a9,(%rdi)
  401d1e:	c3                   	retq   

0000000000401d1f <setval_262>:
  401d1f:	c7 07 16 8b c1 90    	movl   $0x90c18b16,(%rdi)
  401d25:	c3                   	retq   

0000000000401d26 <addval_489>:
  401d26:	8d 87 88 ca 90 90    	lea    -0x6f6f3578(%rdi),%eax
  401d2c:	c3                   	retq   

0000000000401d2d <getval_193>:
  401d2d:	b8 89 d6 08 c0       	mov    $0xc008d689,%eax
  401d32:	c3                   	retq   

0000000000401d33 <getval_310>:
  401d33:	b8 49 89 e0 c3       	mov    $0xc3e08949,%eax
  401d38:	c3                   	retq   

0000000000401d39 <addval_359>:
  401d39:	8d 87 8b ca c3 e2    	lea    -0x1d3c3575(%rdi),%eax
  401d3f:	c3                   	retq   

0000000000401d40 <getval_446>:
  401d40:	b8 37 09 d6 c3       	mov    $0xc3d60937,%eax
  401d45:	c3                   	retq   

0000000000401d46 <getval_151>:
  401d46:	b8 48 89 e0 c7       	mov    $0xc7e08948,%eax
  401d4b:	c3                   	retq   

0000000000401d4c <setval_252>:
  401d4c:	c7 07 88 d6 90 90    	movl   $0x9090d688,(%rdi)
  401d52:	c3                   	retq   

0000000000401d53 <addval_377>:
  401d53:	8d 87 a9 d6 20 c9    	lea    -0x36df2957(%rdi),%eax
  401d59:	c3                   	retq   

0000000000401d5a <setval_495>:
  401d5a:	c7 07 b8 b8 8b c1    	movl   $0xc18bb8b8,(%rdi)
  401d60:	c3                   	retq   

0000000000401d61 <getval_121>:
  401d61:	b8 48 89 e0 91       	mov    $0x91e08948,%eax
  401d66:	c3                   	retq   

0000000000401d67 <setval_157>:
  401d67:	c7 07 89 c1 30 c9    	movl   $0xc930c189,(%rdi)
  401d6d:	c3                   	retq   

0000000000401d6e <addval_221>:
  401d6e:	8d 87 48 89 e0 94    	lea    -0x6b1f76b8(%rdi),%eax
  401d74:	c3                   	retq   

0000000000401d75 <getval_220>:
  401d75:	b8 e2 89 c1 c2       	mov    $0xc2c189e2,%eax
  401d7a:	c3                   	retq   

0000000000401d7b <addval_315>:
  401d7b:	8d 87 01 89 ca 94    	lea    -0x6b3576ff(%rdi),%eax
  401d81:	c3                   	retq   

0000000000401d82 <addval_218>:
  401d82:	8d 87 89 ca 90 c3    	lea    -0x3c6f3577(%rdi),%eax
  401d88:	c3                   	retq   

0000000000401d89 <addval_278>:
  401d89:	8d 87 81 c1 20 c9    	lea    -0x36df3e7f(%rdi),%eax
  401d8f:	c3                   	retq   

0000000000401d90 <addval_350>:
  401d90:	8d 87 48 89 e0 90    	lea    -0x6f1f76b8(%rdi),%eax
  401d96:	c3                   	retq   

0000000000401d97 <setval_317>:
  401d97:	c7 07 48 89 e0 c3    	movl   $0xc3e08948,(%rdi)
  401d9d:	c3                   	retq   

0000000000401d9e <setval_476>:
  401d9e:	c7 07 89 d6 84 d2    	movl   $0xd284d689,(%rdi)
  401da4:	c3                   	retq   

0000000000401da5 <addval_249>:
  401da5:	8d 87 89 c1 60 c0    	lea    -0x3f9f3e77(%rdi),%eax
  401dab:	c3                   	retq   

0000000000401dac <getval_140>:
  401dac:	b8 c9 d6 08 c9       	mov    $0xc908d6c9,%eax
  401db1:	c3                   	retq   

0000000000401db2 <getval_480>:
  401db2:	b8 89 ca c1 30       	mov    $0x30c1ca89,%eax
  401db7:	c3                   	retq   

0000000000401db8 <getval_389>:
  401db8:	b8 89 ca 08 db       	mov    $0xdb08ca89,%eax
  401dbd:	c3                   	retq   

0000000000401dbe <getval_133>:
  401dbe:	b8 b9 e3 88 d6       	mov    $0xd688e3b9,%eax
  401dc3:	c3                   	retq   

0000000000401dc4 <getval_474>:
  401dc4:	b8 c4 89 ca 91       	mov    $0x91ca89c4,%eax
  401dc9:	c3                   	retq   

0000000000401dca <setval_333>:
  401dca:	c7 07 48 89 e0 91    	movl   $0x91e08948,(%rdi)
  401dd0:	c3                   	retq   

0000000000401dd1 <getval_248>:
  401dd1:	b8 89 c1 38 db       	mov    $0xdb38c189,%eax
  401dd6:	c3                   	retq   

0000000000401dd7 <addval_219>:
  401dd7:	8d 87 c9 ca c3 6b    	lea    0x6bc3cac9(%rdi),%eax
  401ddd:	c3                   	retq   

0000000000401dde <end_farm>:
  401dde:	b8 01 00 00 00       	mov    $0x1,%eax
  401de3:	c3                   	retq   

0000000000401de4 <save_char>:
  401de4:	8b 05 7a 63 00 00    	mov    0x637a(%rip),%eax        # 408164 <gets_cnt>
  401dea:	3d ff 03 00 00       	cmp    $0x3ff,%eax
  401def:	7f 49                	jg     401e3a <save_char+0x56>
  401df1:	89 f9                	mov    %edi,%ecx
  401df3:	c0 e9 04             	shr    $0x4,%cl
  401df6:	8d 14 40             	lea    (%rax,%rax,2),%edx
  401df9:	83 e1 0f             	and    $0xf,%ecx
  401dfc:	0f b6 b1 20 47 40 00 	movzbl 0x404720(%rcx),%esi
  401e03:	48 63 ca             	movslq %edx,%rcx
  401e06:	40 88 b1 60 75 40 00 	mov    %sil,0x407560(%rcx)
  401e0d:	8d 4a 01             	lea    0x1(%rdx),%ecx
  401e10:	83 e7 0f             	and    $0xf,%edi
  401e13:	0f b6 b7 20 47 40 00 	movzbl 0x404720(%rdi),%esi
  401e1a:	48 63 c9             	movslq %ecx,%rcx
  401e1d:	40 88 b1 60 75 40 00 	mov    %sil,0x407560(%rcx)
  401e24:	83 c2 02             	add    $0x2,%edx
  401e27:	48 63 d2             	movslq %edx,%rdx
  401e2a:	c6 82 60 75 40 00 20 	movb   $0x20,0x407560(%rdx)
  401e31:	83 c0 01             	add    $0x1,%eax
  401e34:	89 05 2a 63 00 00    	mov    %eax,0x632a(%rip)        # 408164 <gets_cnt>
  401e3a:	c3                   	retq   

0000000000401e3b <save_term>:
  401e3b:	8b 05 23 63 00 00    	mov    0x6323(%rip),%eax        # 408164 <gets_cnt>
  401e41:	8d 04 40             	lea    (%rax,%rax,2),%eax
  401e44:	48 98                	cltq   
  401e46:	c6 80 60 75 40 00 00 	movb   $0x0,0x407560(%rax)
  401e4d:	c3                   	retq   

0000000000401e4e <check_fail>:
  401e4e:	48 83 ec 08          	sub    $0x8,%rsp
  401e52:	0f be 35 df 56 00 00 	movsbl 0x56df(%rip),%esi        # 407538 <target_prefix>
  401e59:	b9 60 75 40 00       	mov    $0x407560,%ecx
  401e5e:	8b 15 e4 56 00 00    	mov    0x56e4(%rip),%edx        # 407548 <check_level>
  401e64:	bf 23 44 40 00       	mov    $0x404423,%edi
  401e69:	b8 00 00 00 00       	mov    $0x0,%eax
  401e6e:	e8 4d f2 ff ff       	callq  4010c0 <printf@plt>
  401e73:	bf 01 00 00 00       	mov    $0x1,%edi
  401e78:	e8 93 f3 ff ff       	callq  401210 <exit@plt>

0000000000401e7d <Gets>:
  401e7d:	41 54                	push   %r12
  401e7f:	55                   	push   %rbp
  401e80:	53                   	push   %rbx
  401e81:	49 89 fc             	mov    %rdi,%r12
  401e84:	c7 05 d6 62 00 00 00 	movl   $0x0,0x62d6(%rip)        # 408164 <gets_cnt>
  401e8b:	00 00 00 
  401e8e:	48 89 fb             	mov    %rdi,%rbx
  401e91:	eb 11                	jmp    401ea4 <Gets+0x27>
  401e93:	48 8d 6b 01          	lea    0x1(%rbx),%rbp
  401e97:	88 03                	mov    %al,(%rbx)
  401e99:	0f b6 f8             	movzbl %al,%edi
  401e9c:	e8 43 ff ff ff       	callq  401de4 <save_char>
  401ea1:	48 89 eb             	mov    %rbp,%rbx
  401ea4:	48 8b 3d 95 56 00 00 	mov    0x5695(%rip),%rdi        # 407540 <infile>
  401eab:	e8 80 f3 ff ff       	callq  401230 <getc@plt>
  401eb0:	83 f8 ff             	cmp    $0xffffffff,%eax
  401eb3:	74 05                	je     401eba <Gets+0x3d>
  401eb5:	83 f8 0a             	cmp    $0xa,%eax
  401eb8:	75 d9                	jne    401e93 <Gets+0x16>
  401eba:	c6 03 00             	movb   $0x0,(%rbx)
  401ebd:	b8 00 00 00 00       	mov    $0x0,%eax
  401ec2:	e8 74 ff ff ff       	callq  401e3b <save_term>
  401ec7:	4c 89 e0             	mov    %r12,%rax
  401eca:	5b                   	pop    %rbx
  401ecb:	5d                   	pop    %rbp
  401ecc:	41 5c                	pop    %r12
  401ece:	c3                   	retq   

0000000000401ecf <notify_server>:
  401ecf:	83 3d 82 56 00 00 00 	cmpl   $0x0,0x5682(%rip)        # 407558 <is_checker>
  401ed6:	0f 85 93 01 00 00    	jne    40206f <notify_server+0x1a0>
  401edc:	55                   	push   %rbp
  401edd:	53                   	push   %rbx
  401ede:	48 81 ec 08 48 00 00 	sub    $0x4808,%rsp
  401ee5:	89 fb                	mov    %edi,%ebx
  401ee7:	81 3d 73 62 00 00 9c 	cmpl   $0x239c,0x6273(%rip)        # 408164 <gets_cnt>
  401eee:	23 00 00 
  401ef1:	0f 8f ad 00 00 00    	jg     401fa4 <notify_server+0xd5>
  401ef7:	44 0f be 0d 39 56 00 	movsbl 0x5639(%rip),%r9d        # 407538 <target_prefix>
  401efe:	00 
  401eff:	83 3d a2 55 00 00 00 	cmpl   $0x0,0x55a2(%rip)        # 4074a8 <notify>
  401f06:	0f 84 b1 00 00 00    	je     401fbd <notify_server+0xee>
  401f0c:	44 8b 05 3d 56 00 00 	mov    0x563d(%rip),%r8d        # 407550 <authkey>
  401f13:	85 db                	test   %ebx,%ebx
  401f15:	0f 84 ad 00 00 00    	je     401fc8 <notify_server+0xf9>
  401f1b:	bd 39 44 40 00       	mov    $0x404439,%ebp
  401f20:	68 60 75 40 00       	pushq  $0x407560
  401f25:	56                   	push   %rsi
  401f26:	48 89 e9             	mov    %rbp,%rcx
  401f29:	8b 15 39 52 00 00    	mov    0x5239(%rip),%edx        # 407168 <target_id>
  401f2f:	be 43 44 40 00       	mov    $0x404443,%esi
  401f34:	48 8d bc 24 10 24 00 	lea    0x2410(%rsp),%rdi
  401f3b:	00 
  401f3c:	b8 00 00 00 00       	mov    $0x0,%eax
  401f41:	e8 ba f2 ff ff       	callq  401200 <sprintf@plt>
  401f46:	48 83 c4 10          	add    $0x10,%rsp
  401f4a:	83 3d 57 55 00 00 00 	cmpl   $0x0,0x5557(%rip)        # 4074a8 <notify>
  401f51:	0f 84 ab 00 00 00    	je     402002 <notify_server+0x133>
  401f57:	85 db                	test   %ebx,%ebx
  401f59:	0f 84 8f 00 00 00    	je     401fee <notify_server+0x11f>
  401f5f:	49 89 e1             	mov    %rsp,%r9
  401f62:	41 b8 00 00 00 00    	mov    $0x0,%r8d
  401f68:	48 8d 8c 24 00 24 00 	lea    0x2400(%rsp),%rcx
  401f6f:	00 
  401f70:	48 8b 15 f9 51 00 00 	mov    0x51f9(%rip),%rdx        # 407170 <lab>
  401f77:	48 8b 35 22 55 00 00 	mov    0x5522(%rip),%rsi        # 4074a0 <course>
  401f7e:	48 8b 3d db 51 00 00 	mov    0x51db(%rip),%rdi        # 407160 <user_id>
  401f85:	e8 ae 0f 00 00       	callq  402f38 <driver_post>
  401f8a:	85 c0                	test   %eax,%eax
  401f8c:	78 44                	js     401fd2 <notify_server+0x103>
  401f8e:	bf 88 45 40 00       	mov    $0x404588,%edi
  401f93:	e8 e8 f0 ff ff       	callq  401080 <puts@plt>
  401f98:	bf 6b 44 40 00       	mov    $0x40446b,%edi
  401f9d:	e8 de f0 ff ff       	callq  401080 <puts@plt>
  401fa2:	eb 54                	jmp    401ff8 <notify_server+0x129>
  401fa4:	bf 58 45 40 00       	mov    $0x404558,%edi
  401fa9:	b8 00 00 00 00       	mov    $0x0,%eax
  401fae:	e8 0d f1 ff ff       	callq  4010c0 <printf@plt>
  401fb3:	bf 01 00 00 00       	mov    $0x1,%edi
  401fb8:	e8 53 f2 ff ff       	callq  401210 <exit@plt>
  401fbd:	41 b8 ff ff ff ff    	mov    $0xffffffff,%r8d
  401fc3:	e9 4b ff ff ff       	jmpq   401f13 <notify_server+0x44>
  401fc8:	bd 3e 44 40 00       	mov    $0x40443e,%ebp
  401fcd:	e9 4e ff ff ff       	jmpq   401f20 <notify_server+0x51>
  401fd2:	48 89 e6             	mov    %rsp,%rsi
  401fd5:	bf 5f 44 40 00       	mov    $0x40445f,%edi
  401fda:	b8 00 00 00 00       	mov    $0x0,%eax
  401fdf:	e8 dc f0 ff ff       	callq  4010c0 <printf@plt>
  401fe4:	bf 01 00 00 00       	mov    $0x1,%edi
  401fe9:	e8 22 f2 ff ff       	callq  401210 <exit@plt>
  401fee:	bf 75 44 40 00       	mov    $0x404475,%edi
  401ff3:	e8 88 f0 ff ff       	callq  401080 <puts@plt>
  401ff8:	48 81 c4 08 48 00 00 	add    $0x4808,%rsp
  401fff:	5b                   	pop    %rbx
  402000:	5d                   	pop    %rbp
  402001:	c3                   	retq   
  402002:	48 89 ee             	mov    %rbp,%rsi
  402005:	bf c0 45 40 00       	mov    $0x4045c0,%edi
  40200a:	b8 00 00 00 00       	mov    $0x0,%eax
  40200f:	e8 ac f0 ff ff       	callq  4010c0 <printf@plt>
  402014:	48 8b 35 45 51 00 00 	mov    0x5145(%rip),%rsi        # 407160 <user_id>
  40201b:	bf 7c 44 40 00       	mov    $0x40447c,%edi
  402020:	b8 00 00 00 00       	mov    $0x0,%eax
  402025:	e8 96 f0 ff ff       	callq  4010c0 <printf@plt>
  40202a:	48 8b 35 6f 54 00 00 	mov    0x546f(%rip),%rsi        # 4074a0 <course>
  402031:	bf 89 44 40 00       	mov    $0x404489,%edi
  402036:	b8 00 00 00 00       	mov    $0x0,%eax
  40203b:	e8 80 f0 ff ff       	callq  4010c0 <printf@plt>
  402040:	48 8b 35 29 51 00 00 	mov    0x5129(%rip),%rsi        # 407170 <lab>
  402047:	bf 95 44 40 00       	mov    $0x404495,%edi
  40204c:	b8 00 00 00 00       	mov    $0x0,%eax
  402051:	e8 6a f0 ff ff       	callq  4010c0 <printf@plt>
  402056:	48 8d b4 24 00 24 00 	lea    0x2400(%rsp),%rsi
  40205d:	00 
  40205e:	bf 9e 44 40 00       	mov    $0x40449e,%edi
  402063:	b8 00 00 00 00       	mov    $0x0,%eax
  402068:	e8 53 f0 ff ff       	callq  4010c0 <printf@plt>
  40206d:	eb 89                	jmp    401ff8 <notify_server+0x129>
  40206f:	c3                   	retq   

0000000000402070 <validate>:
  402070:	53                   	push   %rbx
  402071:	89 fb                	mov    %edi,%ebx
  402073:	83 3d de 54 00 00 00 	cmpl   $0x0,0x54de(%rip)        # 407558 <is_checker>
  40207a:	74 60                	je     4020dc <validate+0x6c>
  40207c:	39 3d ca 54 00 00    	cmp    %edi,0x54ca(%rip)        # 40754c <vlevel>
  402082:	75 29                	jne    4020ad <validate+0x3d>
  402084:	8b 35 be 54 00 00    	mov    0x54be(%rip),%esi        # 407548 <check_level>
  40208a:	39 fe                	cmp    %edi,%esi
  40208c:	75 33                	jne    4020c1 <validate+0x51>
  40208e:	0f be 35 a3 54 00 00 	movsbl 0x54a3(%rip),%esi        # 407538 <target_prefix>
  402095:	b9 60 75 40 00       	mov    $0x407560,%ecx
  40209a:	89 fa                	mov    %edi,%edx
  40209c:	bf c8 44 40 00       	mov    $0x4044c8,%edi
  4020a1:	b8 00 00 00 00       	mov    $0x0,%eax
  4020a6:	e8 15 f0 ff ff       	callq  4010c0 <printf@plt>
  4020ab:	5b                   	pop    %rbx
  4020ac:	c3                   	retq   
  4020ad:	bf aa 44 40 00       	mov    $0x4044aa,%edi
  4020b2:	e8 c9 ef ff ff       	callq  401080 <puts@plt>
  4020b7:	b8 00 00 00 00       	mov    $0x0,%eax
  4020bc:	e8 8d fd ff ff       	callq  401e4e <check_fail>
  4020c1:	89 fa                	mov    %edi,%edx
  4020c3:	bf e8 45 40 00       	mov    $0x4045e8,%edi
  4020c8:	b8 00 00 00 00       	mov    $0x0,%eax
  4020cd:	e8 ee ef ff ff       	callq  4010c0 <printf@plt>
  4020d2:	b8 00 00 00 00       	mov    $0x0,%eax
  4020d7:	e8 72 fd ff ff       	callq  401e4e <check_fail>
  4020dc:	39 3d 6a 54 00 00    	cmp    %edi,0x546a(%rip)        # 40754c <vlevel>
  4020e2:	74 18                	je     4020fc <validate+0x8c>
  4020e4:	bf aa 44 40 00       	mov    $0x4044aa,%edi
  4020e9:	e8 92 ef ff ff       	callq  401080 <puts@plt>
  4020ee:	89 de                	mov    %ebx,%esi
  4020f0:	bf 00 00 00 00       	mov    $0x0,%edi
  4020f5:	e8 d5 fd ff ff       	callq  401ecf <notify_server>
  4020fa:	eb af                	jmp    4020ab <validate+0x3b>
  4020fc:	0f be 15 35 54 00 00 	movsbl 0x5435(%rip),%edx        # 407538 <target_prefix>
  402103:	89 fe                	mov    %edi,%esi
  402105:	bf 10 46 40 00       	mov    $0x404610,%edi
  40210a:	b8 00 00 00 00       	mov    $0x0,%eax
  40210f:	e8 ac ef ff ff       	callq  4010c0 <printf@plt>
  402114:	89 de                	mov    %ebx,%esi
  402116:	bf 01 00 00 00       	mov    $0x1,%edi
  40211b:	e8 af fd ff ff       	callq  401ecf <notify_server>
  402120:	eb 89                	jmp    4020ab <validate+0x3b>

0000000000402122 <fail>:
  402122:	48 83 ec 08          	sub    $0x8,%rsp
  402126:	83 3d 2b 54 00 00 00 	cmpl   $0x0,0x542b(%rip)        # 407558 <is_checker>
  40212d:	75 11                	jne    402140 <fail+0x1e>
  40212f:	89 fe                	mov    %edi,%esi
  402131:	bf 00 00 00 00       	mov    $0x0,%edi
  402136:	e8 94 fd ff ff       	callq  401ecf <notify_server>
  40213b:	48 83 c4 08          	add    $0x8,%rsp
  40213f:	c3                   	retq   
  402140:	b8 00 00 00 00       	mov    $0x0,%eax
  402145:	e8 04 fd ff ff       	callq  401e4e <check_fail>

000000000040214a <bushandler>:
  40214a:	48 83 ec 08          	sub    $0x8,%rsp
  40214e:	83 3d 03 54 00 00 00 	cmpl   $0x0,0x5403(%rip)        # 407558 <is_checker>
  402155:	74 14                	je     40216b <bushandler+0x21>
  402157:	bf dd 44 40 00       	mov    $0x4044dd,%edi
  40215c:	e8 1f ef ff ff       	callq  401080 <puts@plt>
  402161:	b8 00 00 00 00       	mov    $0x0,%eax
  402166:	e8 e3 fc ff ff       	callq  401e4e <check_fail>
  40216b:	bf 48 46 40 00       	mov    $0x404648,%edi
  402170:	e8 0b ef ff ff       	callq  401080 <puts@plt>
  402175:	bf e7 44 40 00       	mov    $0x4044e7,%edi
  40217a:	e8 01 ef ff ff       	callq  401080 <puts@plt>
  40217f:	be 00 00 00 00       	mov    $0x0,%esi
  402184:	bf 00 00 00 00       	mov    $0x0,%edi
  402189:	e8 41 fd ff ff       	callq  401ecf <notify_server>
  40218e:	bf 01 00 00 00       	mov    $0x1,%edi
  402193:	e8 78 f0 ff ff       	callq  401210 <exit@plt>

0000000000402198 <seghandler>:
  402198:	48 83 ec 08          	sub    $0x8,%rsp
  40219c:	83 3d b5 53 00 00 00 	cmpl   $0x0,0x53b5(%rip)        # 407558 <is_checker>
  4021a3:	74 14                	je     4021b9 <seghandler+0x21>
  4021a5:	bf fd 44 40 00       	mov    $0x4044fd,%edi
  4021aa:	e8 d1 ee ff ff       	callq  401080 <puts@plt>
  4021af:	b8 00 00 00 00       	mov    $0x0,%eax
  4021b4:	e8 95 fc ff ff       	callq  401e4e <check_fail>
  4021b9:	bf 68 46 40 00       	mov    $0x404668,%edi
  4021be:	e8 bd ee ff ff       	callq  401080 <puts@plt>
  4021c3:	bf e7 44 40 00       	mov    $0x4044e7,%edi
  4021c8:	e8 b3 ee ff ff       	callq  401080 <puts@plt>
  4021cd:	be 00 00 00 00       	mov    $0x0,%esi
  4021d2:	bf 00 00 00 00       	mov    $0x0,%edi
  4021d7:	e8 f3 fc ff ff       	callq  401ecf <notify_server>
  4021dc:	bf 01 00 00 00       	mov    $0x1,%edi
  4021e1:	e8 2a f0 ff ff       	callq  401210 <exit@plt>

00000000004021e6 <illegalhandler>:
  4021e6:	48 83 ec 08          	sub    $0x8,%rsp
  4021ea:	83 3d 67 53 00 00 00 	cmpl   $0x0,0x5367(%rip)        # 407558 <is_checker>
  4021f1:	74 14                	je     402207 <illegalhandler+0x21>
  4021f3:	bf 10 45 40 00       	mov    $0x404510,%edi
  4021f8:	e8 83 ee ff ff       	callq  401080 <puts@plt>
  4021fd:	b8 00 00 00 00       	mov    $0x0,%eax
  402202:	e8 47 fc ff ff       	callq  401e4e <check_fail>
  402207:	bf 90 46 40 00       	mov    $0x404690,%edi
  40220c:	e8 6f ee ff ff       	callq  401080 <puts@plt>
  402211:	bf e7 44 40 00       	mov    $0x4044e7,%edi
  402216:	e8 65 ee ff ff       	callq  401080 <puts@plt>
  40221b:	be 00 00 00 00       	mov    $0x0,%esi
  402220:	bf 00 00 00 00       	mov    $0x0,%edi
  402225:	e8 a5 fc ff ff       	callq  401ecf <notify_server>
  40222a:	bf 01 00 00 00       	mov    $0x1,%edi
  40222f:	e8 dc ef ff ff       	callq  401210 <exit@plt>

0000000000402234 <sigalrmhandler>:
  402234:	48 83 ec 08          	sub    $0x8,%rsp
  402238:	83 3d 19 53 00 00 00 	cmpl   $0x0,0x5319(%rip)        # 407558 <is_checker>
  40223f:	74 14                	je     402255 <sigalrmhandler+0x21>
  402241:	bf 24 45 40 00       	mov    $0x404524,%edi
  402246:	e8 35 ee ff ff       	callq  401080 <puts@plt>
  40224b:	b8 00 00 00 00       	mov    $0x0,%eax
  402250:	e8 f9 fb ff ff       	callq  401e4e <check_fail>
  402255:	be 05 00 00 00       	mov    $0x5,%esi
  40225a:	bf c0 46 40 00       	mov    $0x4046c0,%edi
  40225f:	b8 00 00 00 00       	mov    $0x0,%eax
  402264:	e8 57 ee ff ff       	callq  4010c0 <printf@plt>
  402269:	be 00 00 00 00       	mov    $0x0,%esi
  40226e:	bf 00 00 00 00       	mov    $0x0,%edi
  402273:	e8 57 fc ff ff       	callq  401ecf <notify_server>
  402278:	bf 01 00 00 00       	mov    $0x1,%edi
  40227d:	e8 8e ef ff ff       	callq  401210 <exit@plt>

0000000000402282 <launch>:
  402282:	55                   	push   %rbp
  402283:	48 89 e5             	mov    %rsp,%rbp
  402286:	48 89 fa             	mov    %rdi,%rdx
  402289:	48 8d 47 17          	lea    0x17(%rdi),%rax
  40228d:	48 83 e0 f0          	and    $0xfffffffffffffff0,%rax
  402291:	48 29 c4             	sub    %rax,%rsp
  402294:	48 8d 7c 24 0f       	lea    0xf(%rsp),%rdi
  402299:	48 83 e7 f0          	and    $0xfffffffffffffff0,%rdi
  40229d:	be f4 00 00 00       	mov    $0xf4,%esi
  4022a2:	e8 29 ee ff ff       	callq  4010d0 <memset@plt>
  4022a7:	48 8b 05 12 52 00 00 	mov    0x5212(%rip),%rax        # 4074c0 <stdin@@GLIBC_2.2.5>
  4022ae:	48 39 05 8b 52 00 00 	cmp    %rax,0x528b(%rip)        # 407540 <infile>
  4022b5:	74 29                	je     4022e0 <launch+0x5e>
  4022b7:	c7 05 8b 52 00 00 00 	movl   $0x0,0x528b(%rip)        # 40754c <vlevel>
  4022be:	00 00 00 
  4022c1:	b8 00 00 00 00       	mov    $0x0,%eax
  4022c6:	e8 d5 f9 ff ff       	callq  401ca0 <test>
  4022cb:	83 3d 86 52 00 00 00 	cmpl   $0x0,0x5286(%rip)        # 407558 <is_checker>
  4022d2:	75 1d                	jne    4022f1 <launch+0x6f>
  4022d4:	bf 44 45 40 00       	mov    $0x404544,%edi
  4022d9:	e8 a2 ed ff ff       	callq  401080 <puts@plt>
  4022de:	c9                   	leaveq 
  4022df:	c3                   	retq   
  4022e0:	bf 2c 45 40 00       	mov    $0x40452c,%edi
  4022e5:	b8 00 00 00 00       	mov    $0x0,%eax
  4022ea:	e8 d1 ed ff ff       	callq  4010c0 <printf@plt>
  4022ef:	eb c6                	jmp    4022b7 <launch+0x35>
  4022f1:	bf 39 45 40 00       	mov    $0x404539,%edi
  4022f6:	e8 85 ed ff ff       	callq  401080 <puts@plt>
  4022fb:	b8 00 00 00 00       	mov    $0x0,%eax
  402300:	e8 49 fb ff ff       	callq  401e4e <check_fail>

0000000000402305 <stable_launch>:
  402305:	53                   	push   %rbx
  402306:	48 89 3d 23 52 00 00 	mov    %rdi,0x5223(%rip)        # 407530 <global_offset>
  40230d:	41 b9 00 00 00 00    	mov    $0x0,%r9d
  402313:	41 b8 00 00 00 00    	mov    $0x0,%r8d
  402319:	b9 32 01 00 00       	mov    $0x132,%ecx
  40231e:	ba 07 00 00 00       	mov    $0x7,%edx
  402323:	be 00 00 10 00       	mov    $0x100000,%esi
  402328:	bf 00 60 58 55       	mov    $0x55586000,%edi
  40232d:	e8 7e ed ff ff       	callq  4010b0 <mmap@plt>
  402332:	48 89 c3             	mov    %rax,%rbx
  402335:	48 3d 00 60 58 55    	cmp    $0x55586000,%rax
  40233b:	75 43                	jne    402380 <stable_launch+0x7b>
  40233d:	48 8d 90 f8 ff 0f 00 	lea    0xffff8(%rax),%rdx
  402344:	48 89 15 dd 51 00 00 	mov    %rdx,0x51dd(%rip)        # 407528 <stack_top>
  40234b:	48 89 e0             	mov    %rsp,%rax
  40234e:	48 89 d4             	mov    %rdx,%rsp
  402351:	48 89 c2             	mov    %rax,%rdx
  402354:	48 89 15 c5 51 00 00 	mov    %rdx,0x51c5(%rip)        # 407520 <global_save_stack>
  40235b:	48 8b 3d ce 51 00 00 	mov    0x51ce(%rip),%rdi        # 407530 <global_offset>
  402362:	e8 1b ff ff ff       	callq  402282 <launch>
  402367:	48 8b 05 b2 51 00 00 	mov    0x51b2(%rip),%rax        # 407520 <global_save_stack>
  40236e:	48 89 c4             	mov    %rax,%rsp
  402371:	be 00 00 10 00       	mov    $0x100000,%esi
  402376:	48 89 df             	mov    %rbx,%rdi
  402379:	e8 22 ee ff ff       	callq  4011a0 <munmap@plt>
  40237e:	5b                   	pop    %rbx
  40237f:	c3                   	retq   
  402380:	be 00 00 10 00       	mov    $0x100000,%esi
  402385:	48 89 c7             	mov    %rax,%rdi
  402388:	e8 13 ee ff ff       	callq  4011a0 <munmap@plt>
  40238d:	ba 00 60 58 55       	mov    $0x55586000,%edx
  402392:	be f8 46 40 00       	mov    $0x4046f8,%esi
  402397:	48 8b 3d 62 51 00 00 	mov    0x5162(%rip),%rdi        # 407500 <stderr@@GLIBC_2.2.5>
  40239e:	b8 00 00 00 00       	mov    $0x0,%eax
  4023a3:	e8 98 ed ff ff       	callq  401140 <fprintf@plt>
  4023a8:	bf 01 00 00 00       	mov    $0x1,%edi
  4023ad:	e8 5e ee ff ff       	callq  401210 <exit@plt>

00000000004023b2 <rio_readinitb>:
  4023b2:	89 37                	mov    %esi,(%rdi)
  4023b4:	c7 47 04 00 00 00 00 	movl   $0x0,0x4(%rdi)
  4023bb:	48 8d 47 10          	lea    0x10(%rdi),%rax
  4023bf:	48 89 47 08          	mov    %rax,0x8(%rdi)
  4023c3:	c3                   	retq   

00000000004023c4 <sigalrm_handler>:
  4023c4:	48 83 ec 08          	sub    $0x8,%rsp
  4023c8:	ba 00 00 00 00       	mov    $0x0,%edx
  4023cd:	be 30 47 40 00       	mov    $0x404730,%esi
  4023d2:	48 8b 3d 27 51 00 00 	mov    0x5127(%rip),%rdi        # 407500 <stderr@@GLIBC_2.2.5>
  4023d9:	b8 00 00 00 00       	mov    $0x0,%eax
  4023de:	e8 5d ed ff ff       	callq  401140 <fprintf@plt>
  4023e3:	bf 01 00 00 00       	mov    $0x1,%edi
  4023e8:	e8 23 ee ff ff       	callq  401210 <exit@plt>

00000000004023ed <urlencode>:
  4023ed:	41 54                	push   %r12
  4023ef:	55                   	push   %rbp
  4023f0:	53                   	push   %rbx
  4023f1:	48 83 ec 10          	sub    $0x10,%rsp
  4023f5:	48 89 fb             	mov    %rdi,%rbx
  4023f8:	48 89 f5             	mov    %rsi,%rbp
  4023fb:	e8 a0 ec ff ff       	callq  4010a0 <strlen@plt>
  402400:	eb 0e                	jmp    402410 <urlencode+0x23>
  402402:	88 55 00             	mov    %dl,0x0(%rbp)
  402405:	48 8d 6d 01          	lea    0x1(%rbp),%rbp
  402409:	48 83 c3 01          	add    $0x1,%rbx
  40240d:	44 89 e0             	mov    %r12d,%eax
  402410:	44 8d 60 ff          	lea    -0x1(%rax),%r12d
  402414:	85 c0                	test   %eax,%eax
  402416:	0f 84 93 00 00 00    	je     4024af <urlencode+0xc2>
  40241c:	0f b6 13             	movzbl (%rbx),%edx
  40241f:	80 fa 2a             	cmp    $0x2a,%dl
  402422:	0f 94 c0             	sete   %al
  402425:	80 fa 2d             	cmp    $0x2d,%dl
  402428:	0f 94 c1             	sete   %cl
  40242b:	08 c8                	or     %cl,%al
  40242d:	75 d3                	jne    402402 <urlencode+0x15>
  40242f:	80 fa 2e             	cmp    $0x2e,%dl
  402432:	74 ce                	je     402402 <urlencode+0x15>
  402434:	80 fa 5f             	cmp    $0x5f,%dl
  402437:	74 c9                	je     402402 <urlencode+0x15>
  402439:	8d 42 d0             	lea    -0x30(%rdx),%eax
  40243c:	3c 09                	cmp    $0x9,%al
  40243e:	76 c2                	jbe    402402 <urlencode+0x15>
  402440:	8d 42 bf             	lea    -0x41(%rdx),%eax
  402443:	3c 19                	cmp    $0x19,%al
  402445:	76 bb                	jbe    402402 <urlencode+0x15>
  402447:	8d 42 9f             	lea    -0x61(%rdx),%eax
  40244a:	3c 19                	cmp    $0x19,%al
  40244c:	76 b4                	jbe    402402 <urlencode+0x15>
  40244e:	80 fa 20             	cmp    $0x20,%dl
  402451:	74 4a                	je     40249d <urlencode+0xb0>
  402453:	8d 42 e0             	lea    -0x20(%rdx),%eax
  402456:	3c 5f                	cmp    $0x5f,%al
  402458:	0f 96 c0             	setbe  %al
  40245b:	80 fa 09             	cmp    $0x9,%dl
  40245e:	0f 94 c1             	sete   %cl
  402461:	08 c8                	or     %cl,%al
  402463:	74 45                	je     4024aa <urlencode+0xbd>
  402465:	0f b6 d2             	movzbl %dl,%edx
  402468:	be c5 47 40 00       	mov    $0x4047c5,%esi
  40246d:	48 8d 7c 24 08       	lea    0x8(%rsp),%rdi
  402472:	b8 00 00 00 00       	mov    $0x0,%eax
  402477:	e8 84 ed ff ff       	callq  401200 <sprintf@plt>
  40247c:	0f b6 44 24 08       	movzbl 0x8(%rsp),%eax
  402481:	88 45 00             	mov    %al,0x0(%rbp)
  402484:	0f b6 44 24 09       	movzbl 0x9(%rsp),%eax
  402489:	88 45 01             	mov    %al,0x1(%rbp)
  40248c:	0f b6 44 24 0a       	movzbl 0xa(%rsp),%eax
  402491:	88 45 02             	mov    %al,0x2(%rbp)
  402494:	48 8d 6d 03          	lea    0x3(%rbp),%rbp
  402498:	e9 6c ff ff ff       	jmpq   402409 <urlencode+0x1c>
  40249d:	c6 45 00 2b          	movb   $0x2b,0x0(%rbp)
  4024a1:	48 8d 6d 01          	lea    0x1(%rbp),%rbp
  4024a5:	e9 5f ff ff ff       	jmpq   402409 <urlencode+0x1c>
  4024aa:	b8 ff ff ff ff       	mov    $0xffffffff,%eax
  4024af:	48 83 c4 10          	add    $0x10,%rsp
  4024b3:	5b                   	pop    %rbx
  4024b4:	5d                   	pop    %rbp
  4024b5:	41 5c                	pop    %r12
  4024b7:	c3                   	retq   

00000000004024b8 <rio_writen>:
  4024b8:	41 55                	push   %r13
  4024ba:	41 54                	push   %r12
  4024bc:	55                   	push   %rbp
  4024bd:	53                   	push   %rbx
  4024be:	48 83 ec 08          	sub    $0x8,%rsp
  4024c2:	41 89 fc             	mov    %edi,%r12d
  4024c5:	48 89 f5             	mov    %rsi,%rbp
  4024c8:	49 89 d5             	mov    %rdx,%r13
  4024cb:	48 89 d3             	mov    %rdx,%rbx
  4024ce:	eb 06                	jmp    4024d6 <rio_writen+0x1e>
  4024d0:	48 29 c3             	sub    %rax,%rbx
  4024d3:	48 01 c5             	add    %rax,%rbp
  4024d6:	48 85 db             	test   %rbx,%rbx
  4024d9:	74 24                	je     4024ff <rio_writen+0x47>
  4024db:	48 89 da             	mov    %rbx,%rdx
  4024de:	48 89 ee             	mov    %rbp,%rsi
  4024e1:	44 89 e7             	mov    %r12d,%edi
  4024e4:	e8 a7 eb ff ff       	callq  401090 <write@plt>
  4024e9:	48 85 c0             	test   %rax,%rax
  4024ec:	7f e2                	jg     4024d0 <rio_writen+0x18>
  4024ee:	e8 4d eb ff ff       	callq  401040 <__errno_location@plt>
  4024f3:	83 38 04             	cmpl   $0x4,(%rax)
  4024f6:	75 15                	jne    40250d <rio_writen+0x55>
  4024f8:	b8 00 00 00 00       	mov    $0x0,%eax
  4024fd:	eb d1                	jmp    4024d0 <rio_writen+0x18>
  4024ff:	4c 89 e8             	mov    %r13,%rax
  402502:	48 83 c4 08          	add    $0x8,%rsp
  402506:	5b                   	pop    %rbx
  402507:	5d                   	pop    %rbp
  402508:	41 5c                	pop    %r12
  40250a:	41 5d                	pop    %r13
  40250c:	c3                   	retq   
  40250d:	48 c7 c0 ff ff ff ff 	mov    $0xffffffffffffffff,%rax
  402514:	eb ec                	jmp    402502 <rio_writen+0x4a>

0000000000402516 <rio_read>:
  402516:	41 55                	push   %r13
  402518:	41 54                	push   %r12
  40251a:	55                   	push   %rbp
  40251b:	53                   	push   %rbx
  40251c:	48 83 ec 08          	sub    $0x8,%rsp
  402520:	48 89 fb             	mov    %rdi,%rbx
  402523:	49 89 f5             	mov    %rsi,%r13
  402526:	49 89 d4             	mov    %rdx,%r12
  402529:	eb 0a                	jmp    402535 <rio_read+0x1f>
  40252b:	e8 10 eb ff ff       	callq  401040 <__errno_location@plt>
  402530:	83 38 04             	cmpl   $0x4,(%rax)
  402533:	75 5a                	jne    40258f <rio_read+0x79>
  402535:	8b 6b 04             	mov    0x4(%rbx),%ebp
  402538:	85 ed                	test   %ebp,%ebp
  40253a:	7f 22                	jg     40255e <rio_read+0x48>
  40253c:	48 8d 6b 10          	lea    0x10(%rbx),%rbp
  402540:	ba 00 24 00 00       	mov    $0x2400,%edx
  402545:	48 89 ee             	mov    %rbp,%rsi
  402548:	8b 3b                	mov    (%rbx),%edi
  40254a:	e8 b1 eb ff ff       	callq  401100 <read@plt>
  40254f:	89 43 04             	mov    %eax,0x4(%rbx)
  402552:	85 c0                	test   %eax,%eax
  402554:	78 d5                	js     40252b <rio_read+0x15>
  402556:	74 40                	je     402598 <rio_read+0x82>
  402558:	48 89 6b 08          	mov    %rbp,0x8(%rbx)
  40255c:	eb d7                	jmp    402535 <rio_read+0x1f>
  40255e:	89 e8                	mov    %ebp,%eax
  402560:	4c 39 e0             	cmp    %r12,%rax
  402563:	72 03                	jb     402568 <rio_read+0x52>
  402565:	44 89 e5             	mov    %r12d,%ebp
  402568:	4c 63 e5             	movslq %ebp,%r12
  40256b:	48 8b 73 08          	mov    0x8(%rbx),%rsi
  40256f:	4c 89 e2             	mov    %r12,%rdx
  402572:	4c 89 ef             	mov    %r13,%rdi
  402575:	e8 e6 eb ff ff       	callq  401160 <memcpy@plt>
  40257a:	4c 01 63 08          	add    %r12,0x8(%rbx)
  40257e:	29 6b 04             	sub    %ebp,0x4(%rbx)
  402581:	4c 89 e0             	mov    %r12,%rax
  402584:	48 83 c4 08          	add    $0x8,%rsp
  402588:	5b                   	pop    %rbx
  402589:	5d                   	pop    %rbp
  40258a:	41 5c                	pop    %r12
  40258c:	41 5d                	pop    %r13
  40258e:	c3                   	retq   
  40258f:	48 c7 c0 ff ff ff ff 	mov    $0xffffffffffffffff,%rax
  402596:	eb ec                	jmp    402584 <rio_read+0x6e>
  402598:	b8 00 00 00 00       	mov    $0x0,%eax
  40259d:	eb e5                	jmp    402584 <rio_read+0x6e>

000000000040259f <rio_readlineb>:
  40259f:	41 55                	push   %r13
  4025a1:	41 54                	push   %r12
  4025a3:	55                   	push   %rbp
  4025a4:	53                   	push   %rbx
  4025a5:	48 83 ec 18          	sub    $0x18,%rsp
  4025a9:	49 89 fd             	mov    %rdi,%r13
  4025ac:	48 89 f5             	mov    %rsi,%rbp
  4025af:	49 89 d4             	mov    %rdx,%r12
  4025b2:	bb 01 00 00 00       	mov    $0x1,%ebx
  4025b7:	eb 18                	jmp    4025d1 <rio_readlineb+0x32>
  4025b9:	85 c0                	test   %eax,%eax
  4025bb:	75 55                	jne    402612 <rio_readlineb+0x73>
  4025bd:	48 83 fb 01          	cmp    $0x1,%rbx
  4025c1:	75 3d                	jne    402600 <rio_readlineb+0x61>
  4025c3:	b8 00 00 00 00       	mov    $0x0,%eax
  4025c8:	eb 3d                	jmp    402607 <rio_readlineb+0x68>
  4025ca:	48 83 c3 01          	add    $0x1,%rbx
  4025ce:	48 89 d5             	mov    %rdx,%rbp
  4025d1:	4c 39 e3             	cmp    %r12,%rbx
  4025d4:	73 2a                	jae    402600 <rio_readlineb+0x61>
  4025d6:	ba 01 00 00 00       	mov    $0x1,%edx
  4025db:	48 8d 74 24 0f       	lea    0xf(%rsp),%rsi
  4025e0:	4c 89 ef             	mov    %r13,%rdi
  4025e3:	e8 2e ff ff ff       	callq  402516 <rio_read>
  4025e8:	83 f8 01             	cmp    $0x1,%eax
  4025eb:	75 cc                	jne    4025b9 <rio_readlineb+0x1a>
  4025ed:	48 8d 55 01          	lea    0x1(%rbp),%rdx
  4025f1:	0f b6 44 24 0f       	movzbl 0xf(%rsp),%eax
  4025f6:	88 45 00             	mov    %al,0x0(%rbp)
  4025f9:	3c 0a                	cmp    $0xa,%al
  4025fb:	75 cd                	jne    4025ca <rio_readlineb+0x2b>
  4025fd:	48 89 d5             	mov    %rdx,%rbp
  402600:	c6 45 00 00          	movb   $0x0,0x0(%rbp)
  402604:	48 89 d8             	mov    %rbx,%rax
  402607:	48 83 c4 18          	add    $0x18,%rsp
  40260b:	5b                   	pop    %rbx
  40260c:	5d                   	pop    %rbp
  40260d:	41 5c                	pop    %r12
  40260f:	41 5d                	pop    %r13
  402611:	c3                   	retq   
  402612:	48 c7 c0 ff ff ff ff 	mov    $0xffffffffffffffff,%rax
  402619:	eb ec                	jmp    402607 <rio_readlineb+0x68>

000000000040261b <submitr>:
  40261b:	41 57                	push   %r15
  40261d:	41 56                	push   %r14
  40261f:	41 55                	push   %r13
  402621:	41 54                	push   %r12
  402623:	55                   	push   %rbp
  402624:	53                   	push   %rbx
  402625:	48 81 ec 58 b4 00 00 	sub    $0xb458,%rsp
  40262c:	49 89 fc             	mov    %rdi,%r12
  40262f:	41 89 f7             	mov    %esi,%r15d
  402632:	49 89 d6             	mov    %rdx,%r14
  402635:	48 89 4c 24 08       	mov    %rcx,0x8(%rsp)
  40263a:	4c 89 44 24 10       	mov    %r8,0x10(%rsp)
  40263f:	4d 89 cd             	mov    %r9,%r13
  402642:	48 8b ac 24 90 b4 00 	mov    0xb490(%rsp),%rbp
  402649:	00 
  40264a:	c7 84 24 2c 24 00 00 	movl   $0x0,0x242c(%rsp)
  402651:	00 00 00 00 
  402655:	ba 00 00 00 00       	mov    $0x0,%edx
  40265a:	be 01 00 00 00       	mov    $0x1,%esi
  40265f:	bf 02 00 00 00       	mov    $0x2,%edi
  402664:	e8 d7 eb ff ff       	callq  401240 <socket@plt>
  402669:	85 c0                	test   %eax,%eax
  40266b:	0f 88 69 02 00 00    	js     4028da <submitr+0x2bf>
  402671:	89 c3                	mov    %eax,%ebx
  402673:	4c 89 e7             	mov    %r12,%rdi
  402676:	e8 b5 ea ff ff       	callq  401130 <gethostbyname@plt>
  40267b:	48 85 c0             	test   %rax,%rax
  40267e:	0f 84 a2 02 00 00    	je     402926 <submitr+0x30b>
  402684:	48 c7 84 24 40 b4 00 	movq   $0x0,0xb440(%rsp)
  40268b:	00 00 00 00 00 
  402690:	48 c7 84 24 48 b4 00 	movq   $0x0,0xb448(%rsp)
  402697:	00 00 00 00 00 
  40269c:	66 c7 84 24 40 b4 00 	movw   $0x2,0xb440(%rsp)
  4026a3:	00 02 00 
  4026a6:	48 8b 48 18          	mov    0x18(%rax),%rcx
  4026aa:	48 63 50 14          	movslq 0x14(%rax),%rdx
  4026ae:	48 8b 31             	mov    (%rcx),%rsi
  4026b1:	48 8d bc 24 44 b4 00 	lea    0xb444(%rsp),%rdi
  4026b8:	00 
  4026b9:	e8 f2 ea ff ff       	callq  4011b0 <memmove@plt>
  4026be:	66 41 c1 c7 08       	rol    $0x8,%r15w
  4026c3:	66 44 89 bc 24 42 b4 	mov    %r15w,0xb442(%rsp)
  4026ca:	00 00 
  4026cc:	ba 10 00 00 00       	mov    $0x10,%edx
  4026d1:	48 8d b4 24 40 b4 00 	lea    0xb440(%rsp),%rsi
  4026d8:	00 
  4026d9:	89 df                	mov    %ebx,%edi
  4026db:	e8 40 eb ff ff       	callq  401220 <connect@plt>
  4026e0:	85 c0                	test   %eax,%eax
  4026e2:	0f 88 a6 02 00 00    	js     40298e <submitr+0x373>
  4026e8:	4c 89 ef             	mov    %r13,%rdi
  4026eb:	e8 b0 e9 ff ff       	callq  4010a0 <strlen@plt>
  4026f0:	49 89 c7             	mov    %rax,%r15
  4026f3:	4c 89 f7             	mov    %r14,%rdi
  4026f6:	e8 a5 e9 ff ff       	callq  4010a0 <strlen@plt>
  4026fb:	48 89 44 24 18       	mov    %rax,0x18(%rsp)
  402700:	48 8b 7c 24 08       	mov    0x8(%rsp),%rdi
  402705:	e8 96 e9 ff ff       	callq  4010a0 <strlen@plt>
  40270a:	48 03 44 24 18       	add    0x18(%rsp),%rax
  40270f:	48 89 44 24 18       	mov    %rax,0x18(%rsp)
  402714:	48 8b 7c 24 10       	mov    0x10(%rsp),%rdi
  402719:	e8 82 e9 ff ff       	callq  4010a0 <strlen@plt>
  40271e:	48 03 44 24 18       	add    0x18(%rsp),%rax
  402723:	4b 8d 14 7f          	lea    (%r15,%r15,2),%rdx
  402727:	48 8d 84 10 80 00 00 	lea    0x80(%rax,%rdx,1),%rax
  40272e:	00 
  40272f:	48 3d 00 24 00 00    	cmp    $0x2400,%rax
  402735:	0f 87 ad 02 00 00    	ja     4029e8 <submitr+0x3cd>
  40273b:	ba 00 24 00 00       	mov    $0x2400,%edx
  402740:	be 00 00 00 00       	mov    $0x0,%esi
  402745:	48 8d bc 24 30 48 00 	lea    0x4830(%rsp),%rdi
  40274c:	00 
  40274d:	e8 7e e9 ff ff       	callq  4010d0 <memset@plt>
  402752:	48 8d b4 24 30 48 00 	lea    0x4830(%rsp),%rsi
  402759:	00 
  40275a:	4c 89 ef             	mov    %r13,%rdi
  40275d:	e8 8b fc ff ff       	callq  4023ed <urlencode>
  402762:	85 c0                	test   %eax,%eax
  402764:	0f 88 f1 02 00 00    	js     402a5b <submitr+0x440>
  40276a:	4d 89 e1             	mov    %r12,%r9
  40276d:	4c 8d 84 24 30 48 00 	lea    0x4830(%rsp),%r8
  402774:	00 
  402775:	4c 89 f1             	mov    %r14,%rcx
  402778:	48 8b 54 24 08       	mov    0x8(%rsp),%rdx
  40277d:	be 58 47 40 00       	mov    $0x404758,%esi
  402782:	48 8d bc 24 30 6c 00 	lea    0x6c30(%rsp),%rdi
  402789:	00 
  40278a:	b8 00 00 00 00       	mov    $0x0,%eax
  40278f:	e8 6c ea ff ff       	callq  401200 <sprintf@plt>
  402794:	48 8d bc 24 30 6c 00 	lea    0x6c30(%rsp),%rdi
  40279b:	00 
  40279c:	e8 ff e8 ff ff       	callq  4010a0 <strlen@plt>
  4027a1:	48 89 c2             	mov    %rax,%rdx
  4027a4:	48 8d b4 24 30 6c 00 	lea    0x6c30(%rsp),%rsi
  4027ab:	00 
  4027ac:	89 df                	mov    %ebx,%edi
  4027ae:	e8 05 fd ff ff       	callq  4024b8 <rio_writen>
  4027b3:	48 85 c0             	test   %rax,%rax
  4027b6:	0f 88 2a 03 00 00    	js     402ae6 <submitr+0x4cb>
  4027bc:	89 de                	mov    %ebx,%esi
  4027be:	48 8d bc 24 30 90 00 	lea    0x9030(%rsp),%rdi
  4027c5:	00 
  4027c6:	e8 e7 fb ff ff       	callq  4023b2 <rio_readinitb>
  4027cb:	ba 00 24 00 00       	mov    $0x2400,%edx
  4027d0:	48 8d b4 24 30 6c 00 	lea    0x6c30(%rsp),%rsi
  4027d7:	00 
  4027d8:	48 8d bc 24 30 90 00 	lea    0x9030(%rsp),%rdi
  4027df:	00 
  4027e0:	e8 ba fd ff ff       	callq  40259f <rio_readlineb>
  4027e5:	48 85 c0             	test   %rax,%rax
  4027e8:	0f 8e 67 03 00 00    	jle    402b55 <submitr+0x53a>
  4027ee:	4c 8d 44 24 20       	lea    0x20(%rsp),%r8
  4027f3:	48 8d 8c 24 2c 24 00 	lea    0x242c(%rsp),%rcx
  4027fa:	00 
  4027fb:	48 8d 94 24 30 24 00 	lea    0x2430(%rsp),%rdx
  402802:	00 
  402803:	be cc 47 40 00       	mov    $0x4047cc,%esi
  402808:	48 8d bc 24 30 6c 00 	lea    0x6c30(%rsp),%rdi
  40280f:	00 
  402810:	b8 00 00 00 00       	mov    $0x0,%eax
  402815:	e8 76 e9 ff ff       	callq  401190 <__isoc99_sscanf@plt>
  40281a:	be e3 47 40 00       	mov    $0x4047e3,%esi
  40281f:	48 8d bc 24 30 6c 00 	lea    0x6c30(%rsp),%rdi
  402826:	00 
  402827:	e8 e4 e8 ff ff       	callq  401110 <strcmp@plt>
  40282c:	85 c0                	test   %eax,%eax
  40282e:	0f 84 9f 03 00 00    	je     402bd3 <submitr+0x5b8>
  402834:	ba 00 24 00 00       	mov    $0x2400,%edx
  402839:	48 8d b4 24 30 6c 00 	lea    0x6c30(%rsp),%rsi
  402840:	00 
  402841:	48 8d bc 24 30 90 00 	lea    0x9030(%rsp),%rdi
  402848:	00 
  402849:	e8 51 fd ff ff       	callq  40259f <rio_readlineb>
  40284e:	48 85 c0             	test   %rax,%rax
  402851:	7f c7                	jg     40281a <submitr+0x1ff>
  402853:	48 b8 45 72 72 6f 72 	movabs $0x43203a726f727245,%rax
  40285a:	3a 20 43 
  40285d:	48 ba 6c 69 65 6e 74 	movabs $0x6e7520746e65696c,%rdx
  402864:	20 75 6e 
  402867:	48 89 45 00          	mov    %rax,0x0(%rbp)
  40286b:	48 89 55 08          	mov    %rdx,0x8(%rbp)
  40286f:	48 b8 61 62 6c 65 20 	movabs $0x206f7420656c6261,%rax
  402876:	74 6f 20 
  402879:	48 ba 72 65 61 64 20 	movabs $0x6165682064616572,%rdx
  402880:	68 65 61 
  402883:	48 89 45 10          	mov    %rax,0x10(%rbp)
  402887:	48 89 55 18          	mov    %rdx,0x18(%rbp)
  40288b:	48 b8 64 65 72 73 20 	movabs $0x6f72662073726564,%rax
  402892:	66 72 6f 
  402895:	48 ba 6d 20 74 68 65 	movabs $0x657220656874206d,%rdx
  40289c:	20 72 65 
  40289f:	48 89 45 20          	mov    %rax,0x20(%rbp)
  4028a3:	48 89 55 28          	mov    %rdx,0x28(%rbp)
  4028a7:	48 b8 73 75 6c 74 20 	movabs $0x72657320746c7573,%rax
  4028ae:	73 65 72 
  4028b1:	48 89 45 30          	mov    %rax,0x30(%rbp)
  4028b5:	c7 45 38 76 65 72 00 	movl   $0x726576,0x38(%rbp)
  4028bc:	89 df                	mov    %ebx,%edi
  4028be:	e8 2d e8 ff ff       	callq  4010f0 <close@plt>
  4028c3:	b8 ff ff ff ff       	mov    $0xffffffff,%eax
  4028c8:	48 81 c4 58 b4 00 00 	add    $0xb458,%rsp
  4028cf:	5b                   	pop    %rbx
  4028d0:	5d                   	pop    %rbp
  4028d1:	41 5c                	pop    %r12
  4028d3:	41 5d                	pop    %r13
  4028d5:	41 5e                	pop    %r14
  4028d7:	41 5f                	pop    %r15
  4028d9:	c3                   	retq   
  4028da:	48 b8 45 72 72 6f 72 	movabs $0x43203a726f727245,%rax
  4028e1:	3a 20 43 
  4028e4:	48 ba 6c 69 65 6e 74 	movabs $0x6e7520746e65696c,%rdx
  4028eb:	20 75 6e 
  4028ee:	48 89 45 00          	mov    %rax,0x0(%rbp)
  4028f2:	48 89 55 08          	mov    %rdx,0x8(%rbp)
  4028f6:	48 b8 61 62 6c 65 20 	movabs $0x206f7420656c6261,%rax
  4028fd:	74 6f 20 
  402900:	48 ba 63 72 65 61 74 	movabs $0x7320657461657263,%rdx
  402907:	65 20 73 
  40290a:	48 89 45 10          	mov    %rax,0x10(%rbp)
  40290e:	48 89 55 18          	mov    %rdx,0x18(%rbp)
  402912:	c7 45 20 6f 63 6b 65 	movl   $0x656b636f,0x20(%rbp)
  402919:	66 c7 45 24 74 00    	movw   $0x74,0x24(%rbp)
  40291f:	b8 ff ff ff ff       	mov    $0xffffffff,%eax
  402924:	eb a2                	jmp    4028c8 <submitr+0x2ad>
  402926:	48 b8 45 72 72 6f 72 	movabs $0x44203a726f727245,%rax
  40292d:	3a 20 44 
  402930:	48 ba 4e 53 20 69 73 	movabs $0x6e7520736920534e,%rdx
  402937:	20 75 6e 
  40293a:	48 89 45 00          	mov    %rax,0x0(%rbp)
  40293e:	48 89 55 08          	mov    %rdx,0x8(%rbp)
  402942:	48 b8 61 62 6c 65 20 	movabs $0x206f7420656c6261,%rax
  402949:	74 6f 20 
  40294c:	48 ba 72 65 73 6f 6c 	movabs $0x2065766c6f736572,%rdx
  402953:	76 65 20 
  402956:	48 89 45 10          	mov    %rax,0x10(%rbp)
  40295a:	48 89 55 18          	mov    %rdx,0x18(%rbp)
  40295e:	48 b8 73 65 72 76 65 	movabs $0x6120726576726573,%rax
  402965:	72 20 61 
  402968:	48 89 45 20          	mov    %rax,0x20(%rbp)
  40296c:	c7 45 28 64 64 72 65 	movl   $0x65726464,0x28(%rbp)
  402973:	66 c7 45 2c 73 73    	movw   $0x7373,0x2c(%rbp)
  402979:	c6 45 2e 00          	movb   $0x0,0x2e(%rbp)
  40297d:	89 df                	mov    %ebx,%edi
  40297f:	e8 6c e7 ff ff       	callq  4010f0 <close@plt>
  402984:	b8 ff ff ff ff       	mov    $0xffffffff,%eax
  402989:	e9 3a ff ff ff       	jmpq   4028c8 <submitr+0x2ad>
  40298e:	48 b8 45 72 72 6f 72 	movabs $0x55203a726f727245,%rax
  402995:	3a 20 55 
  402998:	48 ba 6e 61 62 6c 65 	movabs $0x6f7420656c62616e,%rdx
  40299f:	20 74 6f 
  4029a2:	48 89 45 00          	mov    %rax,0x0(%rbp)
  4029a6:	48 89 55 08          	mov    %rdx,0x8(%rbp)
  4029aa:	48 b8 20 63 6f 6e 6e 	movabs $0x7463656e6e6f6320,%rax
  4029b1:	65 63 74 
  4029b4:	48 ba 20 74 6f 20 74 	movabs $0x20656874206f7420,%rdx
  4029bb:	68 65 20 
  4029be:	48 89 45 10          	mov    %rax,0x10(%rbp)
  4029c2:	48 89 55 18          	mov    %rdx,0x18(%rbp)
  4029c6:	c7 45 20 73 65 72 76 	movl   $0x76726573,0x20(%rbp)
  4029cd:	66 c7 45 24 65 72    	movw   $0x7265,0x24(%rbp)
  4029d3:	c6 45 26 00          	movb   $0x0,0x26(%rbp)
  4029d7:	89 df                	mov    %ebx,%edi
  4029d9:	e8 12 e7 ff ff       	callq  4010f0 <close@plt>
  4029de:	b8 ff ff ff ff       	mov    $0xffffffff,%eax
  4029e3:	e9 e0 fe ff ff       	jmpq   4028c8 <submitr+0x2ad>
  4029e8:	48 b8 45 72 72 6f 72 	movabs $0x52203a726f727245,%rax
  4029ef:	3a 20 52 
  4029f2:	48 ba 65 73 75 6c 74 	movabs $0x747320746c757365,%rdx
  4029f9:	20 73 74 
  4029fc:	48 89 45 00          	mov    %rax,0x0(%rbp)
  402a00:	48 89 55 08          	mov    %rdx,0x8(%rbp)
  402a04:	48 b8 72 69 6e 67 20 	movabs $0x6f6f7420676e6972,%rax
  402a0b:	74 6f 6f 
  402a0e:	48 ba 20 6c 61 72 67 	movabs $0x202e656772616c20,%rdx
  402a15:	65 2e 20 
  402a18:	48 89 45 10          	mov    %rax,0x10(%rbp)
  402a1c:	48 89 55 18          	mov    %rdx,0x18(%rbp)
  402a20:	48 b8 49 6e 63 72 65 	movabs $0x6573616572636e49,%rax
  402a27:	61 73 65 
  402a2a:	48 ba 20 53 55 42 4d 	movabs $0x5254494d42555320,%rdx
  402a31:	49 54 52 
  402a34:	48 89 45 20          	mov    %rax,0x20(%rbp)
  402a38:	48 89 55 28          	mov    %rdx,0x28(%rbp)
  402a3c:	48 b8 5f 4d 41 58 42 	movabs $0x46554258414d5f,%rax
  402a43:	55 46 00 
  402a46:	48 89 45 30          	mov    %rax,0x30(%rbp)
  402a4a:	89 df                	mov    %ebx,%edi
  402a4c:	e8 9f e6 ff ff       	callq  4010f0 <close@plt>
  402a51:	b8 ff ff ff ff       	mov    $0xffffffff,%eax
  402a56:	e9 6d fe ff ff       	jmpq   4028c8 <submitr+0x2ad>
  402a5b:	48 b8 45 72 72 6f 72 	movabs $0x52203a726f727245,%rax
  402a62:	3a 20 52 
  402a65:	48 ba 65 73 75 6c 74 	movabs $0x747320746c757365,%rdx
  402a6c:	20 73 74 
  402a6f:	48 89 45 00          	mov    %rax,0x0(%rbp)
  402a73:	48 89 55 08          	mov    %rdx,0x8(%rbp)
  402a77:	48 b8 72 69 6e 67 20 	movabs $0x6e6f6320676e6972,%rax
  402a7e:	63 6f 6e 
  402a81:	48 ba 74 61 69 6e 73 	movabs $0x6e6120736e696174,%rdx
  402a88:	20 61 6e 
  402a8b:	48 89 45 10          	mov    %rax,0x10(%rbp)
  402a8f:	48 89 55 18          	mov    %rdx,0x18(%rbp)
  402a93:	48 b8 20 69 6c 6c 65 	movabs $0x6c6167656c6c6920,%rax
  402a9a:	67 61 6c 
  402a9d:	48 ba 20 6f 72 20 75 	movabs $0x72706e7520726f20,%rdx
  402aa4:	6e 70 72 
  402aa7:	48 89 45 20          	mov    %rax,0x20(%rbp)
  402aab:	48 89 55 28          	mov    %rdx,0x28(%rbp)
  402aaf:	48 b8 69 6e 74 61 62 	movabs $0x20656c6261746e69,%rax
  402ab6:	6c 65 20 
  402ab9:	48 ba 63 68 61 72 61 	movabs $0x6574636172616863,%rdx
  402ac0:	63 74 65 
  402ac3:	48 89 45 30          	mov    %rax,0x30(%rbp)
  402ac7:	48 89 55 38          	mov    %rdx,0x38(%rbp)
  402acb:	66 c7 45 40 72 2e    	movw   $0x2e72,0x40(%rbp)
  402ad1:	c6 45 42 00          	movb   $0x0,0x42(%rbp)
  402ad5:	89 df                	mov    %ebx,%edi
  402ad7:	e8 14 e6 ff ff       	callq  4010f0 <close@plt>
  402adc:	b8 ff ff ff ff       	mov    $0xffffffff,%eax
  402ae1:	e9 e2 fd ff ff       	jmpq   4028c8 <submitr+0x2ad>
  402ae6:	48 b8 45 72 72 6f 72 	movabs $0x43203a726f727245,%rax
  402aed:	3a 20 43 
  402af0:	48 ba 6c 69 65 6e 74 	movabs $0x6e7520746e65696c,%rdx
  402af7:	20 75 6e 
  402afa:	48 89 45 00          	mov    %rax,0x0(%rbp)
  402afe:	48 89 55 08          	mov    %rdx,0x8(%rbp)
  402b02:	48 b8 61 62 6c 65 20 	movabs $0x206f7420656c6261,%rax
  402b09:	74 6f 20 
  402b0c:	48 ba 77 72 69 74 65 	movabs $0x6f74206574697277,%rdx
  402b13:	20 74 6f 
  402b16:	48 89 45 10          	mov    %rax,0x10(%rbp)
  402b1a:	48 89 55 18          	mov    %rdx,0x18(%rbp)
  402b1e:	48 b8 20 74 68 65 20 	movabs $0x7365722065687420,%rax
  402b25:	72 65 73 
  402b28:	48 ba 75 6c 74 20 73 	movabs $0x7672657320746c75,%rdx
  402b2f:	65 72 76 
  402b32:	48 89 45 20          	mov    %rax,0x20(%rbp)
  402b36:	48 89 55 28          	mov    %rdx,0x28(%rbp)
  402b3a:	66 c7 45 30 65 72    	movw   $0x7265,0x30(%rbp)
  402b40:	c6 45 32 00          	movb   $0x0,0x32(%rbp)
  402b44:	89 df                	mov    %ebx,%edi
  402b46:	e8 a5 e5 ff ff       	callq  4010f0 <close@plt>
  402b4b:	b8 ff ff ff ff       	mov    $0xffffffff,%eax
  402b50:	e9 73 fd ff ff       	jmpq   4028c8 <submitr+0x2ad>
  402b55:	48 b8 45 72 72 6f 72 	movabs $0x43203a726f727245,%rax
  402b5c:	3a 20 43 
  402b5f:	48 ba 6c 69 65 6e 74 	movabs $0x6e7520746e65696c,%rdx
  402b66:	20 75 6e 
  402b69:	48 89 45 00          	mov    %rax,0x0(%rbp)
  402b6d:	48 89 55 08          	mov    %rdx,0x8(%rbp)
  402b71:	48 b8 61 62 6c 65 20 	movabs $0x206f7420656c6261,%rax
  402b78:	74 6f 20 
  402b7b:	48 ba 72 65 61 64 20 	movabs $0x7269662064616572,%rdx
  402b82:	66 69 72 
  402b85:	48 89 45 10          	mov    %rax,0x10(%rbp)
  402b89:	48 89 55 18          	mov    %rdx,0x18(%rbp)
  402b8d:	48 b8 73 74 20 68 65 	movabs $0x6564616568207473,%rax
  402b94:	61 64 65 
  402b97:	48 ba 72 20 66 72 6f 	movabs $0x72206d6f72662072,%rdx
  402b9e:	6d 20 72 
  402ba1:	48 89 45 20          	mov    %rax,0x20(%rbp)
  402ba5:	48 89 55 28          	mov    %rdx,0x28(%rbp)
  402ba9:	48 b8 65 73 75 6c 74 	movabs $0x657320746c757365,%rax
  402bb0:	20 73 65 
  402bb3:	48 89 45 30          	mov    %rax,0x30(%rbp)
  402bb7:	c7 45 38 72 76 65 72 	movl   $0x72657672,0x38(%rbp)
  402bbe:	c6 45 3c 00          	movb   $0x0,0x3c(%rbp)
  402bc2:	89 df                	mov    %ebx,%edi
  402bc4:	e8 27 e5 ff ff       	callq  4010f0 <close@plt>
  402bc9:	b8 ff ff ff ff       	mov    $0xffffffff,%eax
  402bce:	e9 f5 fc ff ff       	jmpq   4028c8 <submitr+0x2ad>
  402bd3:	ba 00 24 00 00       	mov    $0x2400,%edx
  402bd8:	48 8d b4 24 30 6c 00 	lea    0x6c30(%rsp),%rsi
  402bdf:	00 
  402be0:	48 8d bc 24 30 90 00 	lea    0x9030(%rsp),%rdi
  402be7:	00 
  402be8:	e8 b2 f9 ff ff       	callq  40259f <rio_readlineb>
  402bed:	48 85 c0             	test   %rax,%rax
  402bf0:	7e 73                	jle    402c65 <submitr+0x64a>
  402bf2:	8b 94 24 2c 24 00 00 	mov    0x242c(%rsp),%edx
  402bf9:	81 fa c8 00 00 00    	cmp    $0xc8,%edx
  402bff:	0f 85 e4 00 00 00    	jne    402ce9 <submitr+0x6ce>
  402c05:	48 8d b4 24 30 6c 00 	lea    0x6c30(%rsp),%rsi
  402c0c:	00 
  402c0d:	48 89 ef             	mov    %rbp,%rdi
  402c10:	e8 5b e4 ff ff       	callq  401070 <strcpy@plt>
  402c15:	89 df                	mov    %ebx,%edi
  402c17:	e8 d4 e4 ff ff       	callq  4010f0 <close@plt>
  402c1c:	be dd 47 40 00       	mov    $0x4047dd,%esi
  402c21:	48 89 ef             	mov    %rbp,%rdi
  402c24:	e8 e7 e4 ff ff       	callq  401110 <strcmp@plt>
  402c29:	85 c0                	test   %eax,%eax
  402c2b:	0f 84 97 fc ff ff    	je     4028c8 <submitr+0x2ad>
  402c31:	be e1 47 40 00       	mov    $0x4047e1,%esi
  402c36:	48 89 ef             	mov    %rbp,%rdi
  402c39:	e8 d2 e4 ff ff       	callq  401110 <strcmp@plt>
  402c3e:	85 c0                	test   %eax,%eax
  402c40:	0f 84 82 fc ff ff    	je     4028c8 <submitr+0x2ad>
  402c46:	be e6 47 40 00       	mov    $0x4047e6,%esi
  402c4b:	48 89 ef             	mov    %rbp,%rdi
  402c4e:	e8 bd e4 ff ff       	callq  401110 <strcmp@plt>
  402c53:	85 c0                	test   %eax,%eax
  402c55:	0f 84 6d fc ff ff    	je     4028c8 <submitr+0x2ad>
  402c5b:	b8 ff ff ff ff       	mov    $0xffffffff,%eax
  402c60:	e9 63 fc ff ff       	jmpq   4028c8 <submitr+0x2ad>
  402c65:	48 b8 45 72 72 6f 72 	movabs $0x43203a726f727245,%rax
  402c6c:	3a 20 43 
  402c6f:	48 ba 6c 69 65 6e 74 	movabs $0x6e7520746e65696c,%rdx
  402c76:	20 75 6e 
  402c79:	48 89 45 00          	mov    %rax,0x0(%rbp)
  402c7d:	48 89 55 08          	mov    %rdx,0x8(%rbp)
  402c81:	48 b8 61 62 6c 65 20 	movabs $0x206f7420656c6261,%rax
  402c88:	74 6f 20 
  402c8b:	48 ba 72 65 61 64 20 	movabs $0x6174732064616572,%rdx
  402c92:	73 74 61 
  402c95:	48 89 45 10          	mov    %rax,0x10(%rbp)
  402c99:	48 89 55 18          	mov    %rdx,0x18(%rbp)
  402c9d:	48 b8 74 75 73 20 6d 	movabs $0x7373656d20737574,%rax
  402ca4:	65 73 73 
  402ca7:	48 ba 61 67 65 20 66 	movabs $0x6d6f726620656761,%rdx
  402cae:	72 6f 6d 
  402cb1:	48 89 45 20          	mov    %rax,0x20(%rbp)
  402cb5:	48 89 55 28          	mov    %rdx,0x28(%rbp)
  402cb9:	48 b8 20 72 65 73 75 	movabs $0x20746c7573657220,%rax
  402cc0:	6c 74 20 
  402cc3:	48 89 45 30          	mov    %rax,0x30(%rbp)
  402cc7:	c7 45 38 73 65 72 76 	movl   $0x76726573,0x38(%rbp)
  402cce:	66 c7 45 3c 65 72    	movw   $0x7265,0x3c(%rbp)
  402cd4:	c6 45 3e 00          	movb   $0x0,0x3e(%rbp)
  402cd8:	89 df                	mov    %ebx,%edi
  402cda:	e8 11 e4 ff ff       	callq  4010f0 <close@plt>
  402cdf:	b8 ff ff ff ff       	mov    $0xffffffff,%eax
  402ce4:	e9 df fb ff ff       	jmpq   4028c8 <submitr+0x2ad>
  402ce9:	48 8d 4c 24 20       	lea    0x20(%rsp),%rcx
  402cee:	be 98 47 40 00       	mov    $0x404798,%esi
  402cf3:	48 89 ef             	mov    %rbp,%rdi
  402cf6:	b8 00 00 00 00       	mov    $0x0,%eax
  402cfb:	e8 00 e5 ff ff       	callq  401200 <sprintf@plt>
  402d00:	89 df                	mov    %ebx,%edi
  402d02:	e8 e9 e3 ff ff       	callq  4010f0 <close@plt>
  402d07:	b8 ff ff ff ff       	mov    $0xffffffff,%eax
  402d0c:	e9 b7 fb ff ff       	jmpq   4028c8 <submitr+0x2ad>

0000000000402d11 <init_timeout>:
  402d11:	85 ff                	test   %edi,%edi
  402d13:	74 24                	je     402d39 <init_timeout+0x28>
  402d15:	53                   	push   %rbx
  402d16:	89 fb                	mov    %edi,%ebx
  402d18:	78 18                	js     402d32 <init_timeout+0x21>
  402d1a:	be c4 23 40 00       	mov    $0x4023c4,%esi
  402d1f:	bf 0e 00 00 00       	mov    $0xe,%edi
  402d24:	e8 f7 e3 ff ff       	callq  401120 <signal@plt>
  402d29:	89 df                	mov    %ebx,%edi
  402d2b:	e8 b0 e3 ff ff       	callq  4010e0 <alarm@plt>
  402d30:	5b                   	pop    %rbx
  402d31:	c3                   	retq   
  402d32:	bb 00 00 00 00       	mov    $0x0,%ebx
  402d37:	eb e1                	jmp    402d1a <init_timeout+0x9>
  402d39:	c3                   	retq   

0000000000402d3a <init_driver>:
  402d3a:	55                   	push   %rbp
  402d3b:	53                   	push   %rbx
  402d3c:	48 83 ec 18          	sub    $0x18,%rsp
  402d40:	48 89 fd             	mov    %rdi,%rbp
  402d43:	be 01 00 00 00       	mov    $0x1,%esi
  402d48:	bf 0d 00 00 00       	mov    $0xd,%edi
  402d4d:	e8 ce e3 ff ff       	callq  401120 <signal@plt>
  402d52:	be 01 00 00 00       	mov    $0x1,%esi
  402d57:	bf 1d 00 00 00       	mov    $0x1d,%edi
  402d5c:	e8 bf e3 ff ff       	callq  401120 <signal@plt>
  402d61:	be 01 00 00 00       	mov    $0x1,%esi
  402d66:	bf 1d 00 00 00       	mov    $0x1d,%edi
  402d6b:	e8 b0 e3 ff ff       	callq  401120 <signal@plt>
  402d70:	ba 00 00 00 00       	mov    $0x0,%edx
  402d75:	be 01 00 00 00       	mov    $0x1,%esi
  402d7a:	bf 02 00 00 00       	mov    $0x2,%edi
  402d7f:	e8 bc e4 ff ff       	callq  401240 <socket@plt>
  402d84:	85 c0                	test   %eax,%eax
  402d86:	78 7c                	js     402e04 <init_driver+0xca>
  402d88:	89 c3                	mov    %eax,%ebx
  402d8a:	bf 16 43 40 00       	mov    $0x404316,%edi
  402d8f:	e8 9c e3 ff ff       	callq  401130 <gethostbyname@plt>
  402d94:	48 85 c0             	test   %rax,%rax
  402d97:	0f 84 b3 00 00 00    	je     402e50 <init_driver+0x116>
  402d9d:	48 c7 04 24 00 00 00 	movq   $0x0,(%rsp)
  402da4:	00 
  402da5:	48 c7 44 24 08 00 00 	movq   $0x0,0x8(%rsp)
  402dac:	00 00 
  402dae:	66 c7 04 24 02 00    	movw   $0x2,(%rsp)
  402db4:	48 8b 48 18          	mov    0x18(%rax),%rcx
  402db8:	48 63 50 14          	movslq 0x14(%rax),%rdx
  402dbc:	48 8b 31             	mov    (%rcx),%rsi
  402dbf:	48 8d 7c 24 04       	lea    0x4(%rsp),%rdi
  402dc4:	e8 e7 e3 ff ff       	callq  4011b0 <memmove@plt>
  402dc9:	66 c7 44 24 02 3e 81 	movw   $0x813e,0x2(%rsp)
  402dd0:	ba 10 00 00 00       	mov    $0x10,%edx
  402dd5:	48 89 e6             	mov    %rsp,%rsi
  402dd8:	89 df                	mov    %ebx,%edi
  402dda:	e8 41 e4 ff ff       	callq  401220 <connect@plt>
  402ddf:	85 c0                	test   %eax,%eax
  402de1:	0f 88 d1 00 00 00    	js     402eb8 <init_driver+0x17e>
  402de7:	89 df                	mov    %ebx,%edi
  402de9:	e8 02 e3 ff ff       	callq  4010f0 <close@plt>
  402dee:	66 c7 45 00 4f 4b    	movw   $0x4b4f,0x0(%rbp)
  402df4:	c6 45 02 00          	movb   $0x0,0x2(%rbp)
  402df8:	b8 00 00 00 00       	mov    $0x0,%eax
  402dfd:	48 83 c4 18          	add    $0x18,%rsp
  402e01:	5b                   	pop    %rbx
  402e02:	5d                   	pop    %rbp
  402e03:	c3                   	retq   
  402e04:	48 b8 45 72 72 6f 72 	movabs $0x43203a726f727245,%rax
  402e0b:	3a 20 43 
  402e0e:	48 ba 6c 69 65 6e 74 	movabs $0x6e7520746e65696c,%rdx
  402e15:	20 75 6e 
  402e18:	48 89 45 00          	mov    %rax,0x0(%rbp)
  402e1c:	48 89 55 08          	mov    %rdx,0x8(%rbp)
  402e20:	48 b8 61 62 6c 65 20 	movabs $0x206f7420656c6261,%rax
  402e27:	74 6f 20 
  402e2a:	48 ba 63 72 65 61 74 	movabs $0x7320657461657263,%rdx
  402e31:	65 20 73 
  402e34:	48 89 45 10          	mov    %rax,0x10(%rbp)
  402e38:	48 89 55 18          	mov    %rdx,0x18(%rbp)
  402e3c:	c7 45 20 6f 63 6b 65 	movl   $0x656b636f,0x20(%rbp)
  402e43:	66 c7 45 24 74 00    	movw   $0x74,0x24(%rbp)
  402e49:	b8 ff ff ff ff       	mov    $0xffffffff,%eax
  402e4e:	eb ad                	jmp    402dfd <init_driver+0xc3>
  402e50:	48 b8 45 72 72 6f 72 	movabs $0x44203a726f727245,%rax
  402e57:	3a 20 44 
  402e5a:	48 ba 4e 53 20 69 73 	movabs $0x6e7520736920534e,%rdx
  402e61:	20 75 6e 
  402e64:	48 89 45 00          	mov    %rax,0x0(%rbp)
  402e68:	48 89 55 08          	mov    %rdx,0x8(%rbp)
  402e6c:	48 b8 61 62 6c 65 20 	movabs $0x206f7420656c6261,%rax
  402e73:	74 6f 20 
  402e76:	48 ba 72 65 73 6f 6c 	movabs $0x2065766c6f736572,%rdx
  402e7d:	76 65 20 
  402e80:	48 89 45 10          	mov    %rax,0x10(%rbp)
  402e84:	48 89 55 18          	mov    %rdx,0x18(%rbp)
  402e88:	48 b8 73 65 72 76 65 	movabs $0x6120726576726573,%rax
  402e8f:	72 20 61 
  402e92:	48 89 45 20          	mov    %rax,0x20(%rbp)
  402e96:	c7 45 28 64 64 72 65 	movl   $0x65726464,0x28(%rbp)
  402e9d:	66 c7 45 2c 73 73    	movw   $0x7373,0x2c(%rbp)
  402ea3:	c6 45 2e 00          	movb   $0x0,0x2e(%rbp)
  402ea7:	89 df                	mov    %ebx,%edi
  402ea9:	e8 42 e2 ff ff       	callq  4010f0 <close@plt>
  402eae:	b8 ff ff ff ff       	mov    $0xffffffff,%eax
  402eb3:	e9 45 ff ff ff       	jmpq   402dfd <init_driver+0xc3>
  402eb8:	48 b8 63 73 33 34 38 	movabs $0x632e323834337363,%rax
  402ebf:	32 2e 63 
  402ec2:	48 ba 73 2e 61 70 70 	movabs $0x6174737070612e73,%rdx
  402ec9:	73 74 61 
  402ecc:	48 89 45 00          	mov    %rax,0x0(%rbp)
  402ed0:	48 89 55 08          	mov    %rdx,0x8(%rbp)
  402ed4:	c7 45 10 74 65 2e 65 	movl   $0x652e6574,0x10(%rbp)
  402edb:	66 c7 45 14 64 75    	movw   $0x7564,0x14(%rbp)
  402ee1:	c6 45 16 00          	movb   $0x0,0x16(%rbp)
  402ee5:	48 b8 45 72 72 6f 72 	movabs $0x55203a726f727245,%rax
  402eec:	3a 20 55 
  402eef:	48 ba 6e 61 62 6c 65 	movabs $0x6f7420656c62616e,%rdx
  402ef6:	20 74 6f 
  402ef9:	48 89 45 00          	mov    %rax,0x0(%rbp)
  402efd:	48 89 55 08          	mov    %rdx,0x8(%rbp)
  402f01:	48 b8 20 63 6f 6e 6e 	movabs $0x7463656e6e6f6320,%rax
  402f08:	65 63 74 
  402f0b:	48 ba 20 74 6f 20 73 	movabs $0x76726573206f7420,%rdx
  402f12:	65 72 76 
  402f15:	48 89 45 10          	mov    %rax,0x10(%rbp)
  402f19:	48 89 55 18          	mov    %rdx,0x18(%rbp)
  402f1d:	66 c7 45 20 65 72    	movw   $0x7265,0x20(%rbp)
  402f23:	c6 45 22 00          	movb   $0x0,0x22(%rbp)
  402f27:	89 df                	mov    %ebx,%edi
  402f29:	e8 c2 e1 ff ff       	callq  4010f0 <close@plt>
  402f2e:	b8 ff ff ff ff       	mov    $0xffffffff,%eax
  402f33:	e9 c5 fe ff ff       	jmpq   402dfd <init_driver+0xc3>

0000000000402f38 <driver_post>:
  402f38:	53                   	push   %rbx
  402f39:	4c 89 cb             	mov    %r9,%rbx
  402f3c:	45 85 c0             	test   %r8d,%r8d
  402f3f:	75 18                	jne    402f59 <driver_post+0x21>
  402f41:	48 85 ff             	test   %rdi,%rdi
  402f44:	74 05                	je     402f4b <driver_post+0x13>
  402f46:	80 3f 00             	cmpb   $0x0,(%rdi)
  402f49:	75 30                	jne    402f7b <driver_post+0x43>
  402f4b:	66 c7 03 4f 4b       	movw   $0x4b4f,(%rbx)
  402f50:	c6 43 02 00          	movb   $0x0,0x2(%rbx)
  402f54:	44 89 c0             	mov    %r8d,%eax
  402f57:	5b                   	pop    %rbx
  402f58:	c3                   	retq   
  402f59:	48 89 ce             	mov    %rcx,%rsi
  402f5c:	bf e9 47 40 00       	mov    $0x4047e9,%edi
  402f61:	b8 00 00 00 00       	mov    $0x0,%eax
  402f66:	e8 55 e1 ff ff       	callq  4010c0 <printf@plt>
  402f6b:	66 c7 03 4f 4b       	movw   $0x4b4f,(%rbx)
  402f70:	c6 43 02 00          	movb   $0x0,0x2(%rbx)
  402f74:	b8 00 00 00 00       	mov    $0x0,%eax
  402f79:	eb dc                	jmp    402f57 <driver_post+0x1f>
  402f7b:	48 83 ec 08          	sub    $0x8,%rsp
  402f7f:	41 51                	push   %r9
  402f81:	49 89 c9             	mov    %rcx,%r9
  402f84:	49 89 d0             	mov    %rdx,%r8
  402f87:	48 89 f9             	mov    %rdi,%rcx
  402f8a:	48 89 f2             	mov    %rsi,%rdx
  402f8d:	be 81 3e 00 00       	mov    $0x3e81,%esi
  402f92:	bf 16 43 40 00       	mov    $0x404316,%edi
  402f97:	e8 7f f6 ff ff       	callq  40261b <submitr>
  402f9c:	48 83 c4 10          	add    $0x10,%rsp
  402fa0:	eb b5                	jmp    402f57 <driver_post+0x1f>

0000000000402fa2 <check>:
  402fa2:	89 f8                	mov    %edi,%eax
  402fa4:	c1 e8 1c             	shr    $0x1c,%eax
  402fa7:	74 1d                	je     402fc6 <check+0x24>
  402fa9:	b9 00 00 00 00       	mov    $0x0,%ecx
  402fae:	83 f9 1f             	cmp    $0x1f,%ecx
  402fb1:	7f 0d                	jg     402fc0 <check+0x1e>
  402fb3:	89 f8                	mov    %edi,%eax
  402fb5:	d3 e8                	shr    %cl,%eax
  402fb7:	3c 0a                	cmp    $0xa,%al
  402fb9:	74 11                	je     402fcc <check+0x2a>
  402fbb:	83 c1 08             	add    $0x8,%ecx
  402fbe:	eb ee                	jmp    402fae <check+0xc>
  402fc0:	b8 01 00 00 00       	mov    $0x1,%eax
  402fc5:	c3                   	retq   
  402fc6:	b8 00 00 00 00       	mov    $0x0,%eax
  402fcb:	c3                   	retq   
  402fcc:	b8 00 00 00 00       	mov    $0x0,%eax
  402fd1:	c3                   	retq   

0000000000402fd2 <gencookie>:
  402fd2:	53                   	push   %rbx
  402fd3:	83 c7 01             	add    $0x1,%edi
  402fd6:	e8 75 e0 ff ff       	callq  401050 <srandom@plt>
  402fdb:	e8 a0 e1 ff ff       	callq  401180 <random@plt>
  402fe0:	89 c3                	mov    %eax,%ebx
  402fe2:	89 c7                	mov    %eax,%edi
  402fe4:	e8 b9 ff ff ff       	callq  402fa2 <check>
  402fe9:	85 c0                	test   %eax,%eax
  402feb:	74 ee                	je     402fdb <gencookie+0x9>
  402fed:	89 d8                	mov    %ebx,%eax
  402fef:	5b                   	pop    %rbx
  402ff0:	c3                   	retq   

Disassembly of section .fini:

0000000000402ff4 <_fini>:
  402ff4:	f3 0f 1e fa          	endbr64 
  402ff8:	48 83 ec 08          	sub    $0x8,%rsp
  402ffc:	48 83 c4 08          	add    $0x8,%rsp
  403000:	c3                   	retq   
